ARM GAS  /var/folders/cl/k1vt3d7567s5t107m3sv9whr0000gn/T//cclnrocj.s 			page 1


   1              		.cpu cortex-m7
   2              		.arch armv7e-m
   3              		.fpu fpv5-d16
   4              		.eabi_attribute 28, 1
   5              		.eabi_attribute 20, 1
   6              		.eabi_attribute 21, 1
   7              		.eabi_attribute 23, 3
   8              		.eabi_attribute 24, 1
   9              		.eabi_attribute 25, 1
  10              		.eabi_attribute 26, 1
  11              		.eabi_attribute 30, 2
  12              		.eabi_attribute 34, 1
  13              		.eabi_attribute 18, 4
  14              		.file	"LoopyLCD.cpp"
  15              		.text
  16              	.Ltext0:
  17              		.cfi_sections	.debug_frame
  18              		.section	.text._ZN5daisy9DaisySeedD2Ev,"axG",%progbits,_ZN5daisy9DaisySeedD5Ev,comdat
  19              		.align	1
  20              		.p2align 2,,3
  21              		.weak	_ZN5daisy9DaisySeedD2Ev
  22              		.syntax unified
  23              		.thumb
  24              		.thumb_func
  26              	_ZN5daisy9DaisySeedD2Ev:
  27              	.LVL0:
  28              	.LFB2529:
  29              		.file 1 "../../libDaisy//src/daisy_seed.h"
   1:../../libDaisy//src/daisy_seed.h **** #pragma once
   2:../../libDaisy//src/daisy_seed.h **** #ifndef DSY_SEED_H
   3:../../libDaisy//src/daisy_seed.h **** #define DSY_SEED_H
   4:../../libDaisy//src/daisy_seed.h **** 
   5:../../libDaisy//src/daisy_seed.h **** #include "daisy.h"
   6:../../libDaisy//src/daisy_seed.h **** 
   7:../../libDaisy//src/daisy_seed.h **** //Uncomment this out if you're still using the rev2 hardware
   8:../../libDaisy//src/daisy_seed.h **** //#define SEED_REV2
   9:../../libDaisy//src/daisy_seed.h **** 
  10:../../libDaisy//src/daisy_seed.h **** namespace daisy
  11:../../libDaisy//src/daisy_seed.h **** {
  12:../../libDaisy//src/daisy_seed.h **** /**
  13:../../libDaisy//src/daisy_seed.h ****    @brief This is the higher-level interface for the Daisy board. \n 
  14:../../libDaisy//src/daisy_seed.h ****     All basic peripheral configuration/initialization is setup here. \n
  15:../../libDaisy//src/daisy_seed.h **** 
  16:../../libDaisy//src/daisy_seed.h ****    @ingroup boards
  17:../../libDaisy//src/daisy_seed.h **** */
  18:../../libDaisy//src/daisy_seed.h **** class DaisySeed
  19:../../libDaisy//src/daisy_seed.h **** {
  20:../../libDaisy//src/daisy_seed.h ****   public:
  21:../../libDaisy//src/daisy_seed.h ****     DaisySeed() {}
  22:../../libDaisy//src/daisy_seed.h ****     ~DaisySeed() {}
  30              		.loc 1 22 5 view -0
  31              		.cfi_startproc
  32              		@ args = 0, pretend = 0, frame = 0
  33              		@ frame_needed = 0, uses_anonymous_args = 0
  34              		@ link register save eliminated.
  35              	.LBB190:
  36              	.LBI190:
ARM GAS  /var/folders/cl/k1vt3d7567s5t107m3sv9whr0000gn/T//cclnrocj.s 			page 2


  37              		.file 2 "../../libDaisy//src/sys/system.h"
   1:../../libDaisy//src/sys/system.h **** #ifndef DSY_SYSTEM_H
   2:../../libDaisy//src/sys/system.h **** #define DSY_SYSTEM_H
   3:../../libDaisy//src/sys/system.h **** 
   4:../../libDaisy//src/sys/system.h **** #ifndef UNIT_TEST // for unit tests, a dummy implementation is provided below
   5:../../libDaisy//src/sys/system.h **** 
   6:../../libDaisy//src/sys/system.h **** #include <cstdint>
   7:../../libDaisy//src/sys/system.h **** #include "per/tim.h"
   8:../../libDaisy//src/sys/system.h **** 
   9:../../libDaisy//src/sys/system.h **** namespace daisy
  10:../../libDaisy//src/sys/system.h **** {
  11:../../libDaisy//src/sys/system.h **** /** A handle for interacting with the Core System. 
  12:../../libDaisy//src/sys/system.h ****  ** This includes the Clock tree, MPU, global DMA initialization,
  13:../../libDaisy//src/sys/system.h ****  ** cache handling, and any other necessary global initiailzation
  14:../../libDaisy//src/sys/system.h ****  **
  15:../../libDaisy//src/sys/system.h ****  ** @author shensley
  16:../../libDaisy//src/sys/system.h ****  ** @ingroup system
  17:../../libDaisy//src/sys/system.h ****  */
  18:../../libDaisy//src/sys/system.h **** class System
  19:../../libDaisy//src/sys/system.h **** {
  20:../../libDaisy//src/sys/system.h ****   public:
  21:../../libDaisy//src/sys/system.h ****     /** Contains settings for initializing the System */
  22:../../libDaisy//src/sys/system.h ****     struct Config
  23:../../libDaisy//src/sys/system.h ****     {
  24:../../libDaisy//src/sys/system.h ****         /** Specifies the system clock frequency that feeds APB/AHB clocks, etc. */
  25:../../libDaisy//src/sys/system.h ****         enum class SysClkFreq
  26:../../libDaisy//src/sys/system.h ****         {
  27:../../libDaisy//src/sys/system.h ****             FREQ_400MHZ,
  28:../../libDaisy//src/sys/system.h ****             FREQ_480MHZ,
  29:../../libDaisy//src/sys/system.h ****         };
  30:../../libDaisy//src/sys/system.h **** 
  31:../../libDaisy//src/sys/system.h ****         /** Method to call on the struct to set to defaults
  32:../../libDaisy//src/sys/system.h ****          ** CPU Freq set to 400MHz
  33:../../libDaisy//src/sys/system.h ****          ** Cache Enabled 
  34:../../libDaisy//src/sys/system.h ****          ** */
  35:../../libDaisy//src/sys/system.h ****         void Defaults()
  36:../../libDaisy//src/sys/system.h ****         {
  37:../../libDaisy//src/sys/system.h ****             cpu_freq    = SysClkFreq::FREQ_400MHZ;
  38:../../libDaisy//src/sys/system.h ****             use_dcache  = true;
  39:../../libDaisy//src/sys/system.h ****             use_icache  = true;
  40:../../libDaisy//src/sys/system.h ****             skip_clocks = false;
  41:../../libDaisy//src/sys/system.h ****         }
  42:../../libDaisy//src/sys/system.h **** 
  43:../../libDaisy//src/sys/system.h ****         /** Method to call on the struct to set to boost mode:
  44:../../libDaisy//src/sys/system.h ****          ** CPU Freq set to 480MHz
  45:../../libDaisy//src/sys/system.h ****          ** Cache Enabled 
  46:../../libDaisy//src/sys/system.h ****          ** */
  47:../../libDaisy//src/sys/system.h ****         void Boost()
  48:../../libDaisy//src/sys/system.h ****         {
  49:../../libDaisy//src/sys/system.h ****             cpu_freq    = SysClkFreq::FREQ_480MHZ;
  50:../../libDaisy//src/sys/system.h ****             use_dcache  = true;
  51:../../libDaisy//src/sys/system.h ****             use_icache  = true;
  52:../../libDaisy//src/sys/system.h ****             skip_clocks = false;
  53:../../libDaisy//src/sys/system.h ****         }
  54:../../libDaisy//src/sys/system.h **** 
  55:../../libDaisy//src/sys/system.h ****         SysClkFreq cpu_freq;
  56:../../libDaisy//src/sys/system.h ****         bool       use_dcache;
ARM GAS  /var/folders/cl/k1vt3d7567s5t107m3sv9whr0000gn/T//cclnrocj.s 			page 3


  57:../../libDaisy//src/sys/system.h ****         bool       use_icache;
  58:../../libDaisy//src/sys/system.h ****         bool       skip_clocks;
  59:../../libDaisy//src/sys/system.h ****     };
  60:../../libDaisy//src/sys/system.h **** 
  61:../../libDaisy//src/sys/system.h ****     /** Describes the different regions of memory available to the Daisy
  62:../../libDaisy//src/sys/system.h ****      * 
  63:../../libDaisy//src/sys/system.h ****      */
  64:../../libDaisy//src/sys/system.h ****     enum MemoryRegion
  65:../../libDaisy//src/sys/system.h ****     {
  66:../../libDaisy//src/sys/system.h ****         INTERNAL_FLASH = 0,
  67:../../libDaisy//src/sys/system.h ****         ITCMRAM,
  68:../../libDaisy//src/sys/system.h ****         DTCMRAM,
  69:../../libDaisy//src/sys/system.h ****         SRAM_D1,
  70:../../libDaisy//src/sys/system.h ****         SRAM_D2,
  71:../../libDaisy//src/sys/system.h ****         SRAM_D3,
  72:../../libDaisy//src/sys/system.h ****         SDRAM,
  73:../../libDaisy//src/sys/system.h ****         QSPI,
  74:../../libDaisy//src/sys/system.h ****         INVALID_ADDRESS,
  75:../../libDaisy//src/sys/system.h ****     };
  76:../../libDaisy//src/sys/system.h **** 
  77:../../libDaisy//src/sys/system.h ****     System() {}
  78:../../libDaisy//src/sys/system.h ****     ~System() {}
  38              		.loc 2 78 5 view .LVU1
  39              		.loc 2 78 5 is_stmt 0 view .LVU2
  40              	.LBE190:
  41              	.LBB191:
  42              	.LBI191:
  43              		.file 3 "../../libDaisy//src/hid/usb.h"
   1:../../libDaisy//src/hid/usb.h **** #pragma once
   2:../../libDaisy//src/hid/usb.h **** #ifndef DSY_HID_USB_H
   3:../../libDaisy//src/hid/usb.h **** #define DSY_HID_USB_H
   4:../../libDaisy//src/hid/usb.h **** #include <stdint.h>
   5:../../libDaisy//src/hid/usb.h **** #include <stdlib.h>
   6:../../libDaisy//src/hid/usb.h **** 
   7:../../libDaisy//src/hid/usb.h **** namespace daisy
   8:../../libDaisy//src/hid/usb.h **** /** @addtogroup human_interface
   9:../../libDaisy//src/hid/usb.h ****     @{
  10:../../libDaisy//src/hid/usb.h **** */
  11:../../libDaisy//src/hid/usb.h **** 
  12:../../libDaisy//src/hid/usb.h **** {
  13:../../libDaisy//src/hid/usb.h **** /** 
  14:../../libDaisy//src/hid/usb.h ****     @brief Interface for initializing and using the USB Peripherals on the daisy
  15:../../libDaisy//src/hid/usb.h ****     @author Stephen Hensley
  16:../../libDaisy//src/hid/usb.h ****     @date December 2019
  17:../../libDaisy//src/hid/usb.h **** */
  18:../../libDaisy//src/hid/usb.h **** class UsbHandle
  19:../../libDaisy//src/hid/usb.h **** {
  20:../../libDaisy//src/hid/usb.h ****   public:
  21:../../libDaisy//src/hid/usb.h ****     /** Return values for USBHandle Functions */
  22:../../libDaisy//src/hid/usb.h ****     enum class Result
  23:../../libDaisy//src/hid/usb.h ****     {
  24:../../libDaisy//src/hid/usb.h ****         OK,
  25:../../libDaisy//src/hid/usb.h ****         ERR,
  26:../../libDaisy//src/hid/usb.h ****     };
  27:../../libDaisy//src/hid/usb.h **** 
  28:../../libDaisy//src/hid/usb.h ****     /** Specified which of the two USB Peripherals to initialize. */
  29:../../libDaisy//src/hid/usb.h ****     enum UsbPeriph
ARM GAS  /var/folders/cl/k1vt3d7567s5t107m3sv9whr0000gn/T//cclnrocj.s 			page 4


  30:../../libDaisy//src/hid/usb.h ****     {
  31:../../libDaisy//src/hid/usb.h ****         FS_INTERNAL, /**< Internal pin */
  32:../../libDaisy//src/hid/usb.h ****         FS_EXTERNAL, /**< FS External D+ pin is Pin 38 (GPIO32). FS External D- pin is Pin 37 (GPIO
  33:../../libDaisy//src/hid/usb.h ****         FS_BOTH,     /**< Both */
  34:../../libDaisy//src/hid/usb.h ****     };
  35:../../libDaisy//src/hid/usb.h **** 
  36:../../libDaisy//src/hid/usb.h **** 
  37:../../libDaisy//src/hid/usb.h ****     /** Function called upon reception of a buffer */
  38:../../libDaisy//src/hid/usb.h ****     typedef void (*ReceiveCallback)(uint8_t* buff, uint32_t* len);
  39:../../libDaisy//src/hid/usb.h **** 
  40:../../libDaisy//src/hid/usb.h ****     UsbHandle() {}
  41:../../libDaisy//src/hid/usb.h **** 
  42:../../libDaisy//src/hid/usb.h ****     ~UsbHandle() {}
  44              		.loc 3 42 5 is_stmt 1 view .LVU3
  45              		.loc 3 42 5 is_stmt 0 view .LVU4
  46              	.LBE191:
  47              	.LBB192:
  48              	.LBI192:
  49              		.file 4 "../../libDaisy//src/per/adc.h"
   1:../../libDaisy//src/per/adc.h **** #pragma once
   2:../../libDaisy//src/per/adc.h **** #ifndef DSY_ADC_H
   3:../../libDaisy//src/per/adc.h **** #define DSY_ADC_H /**< Macro */
   4:../../libDaisy//src/per/adc.h **** #include <stdint.h>
   5:../../libDaisy//src/per/adc.h **** #include <stdlib.h>
   6:../../libDaisy//src/per/adc.h **** #include "daisy_core.h"
   7:../../libDaisy//src/per/adc.h **** #include "per/gpio.h"
   8:../../libDaisy//src/per/adc.h **** 
   9:../../libDaisy//src/per/adc.h **** #define DSY_ADC_MAX_CHANNELS 16 /**< Maximum number of ADC channels */
  10:../../libDaisy//src/per/adc.h **** 
  11:../../libDaisy//src/per/adc.h **** namespace daisy
  12:../../libDaisy//src/per/adc.h **** {
  13:../../libDaisy//src/per/adc.h **** /** @addtogroup per_analog
  14:../../libDaisy//src/per/adc.h ****     @{
  15:../../libDaisy//src/per/adc.h **** */
  16:../../libDaisy//src/per/adc.h **** 
  17:../../libDaisy//src/per/adc.h **** /* While there may not be many configuration options here,
  18:../../libDaisy//src/per/adc.h **** using a struct like this allows us to add more configuration
  19:../../libDaisy//src/per/adc.h **** later without breaking existing functionality.
  20:../../libDaisy//src/per/adc.h **** */
  21:../../libDaisy//src/per/adc.h **** 
  22:../../libDaisy//src/per/adc.h **** /** @brief   Configuration Structure for an ADC Channel 
  23:../../libDaisy//src/per/adc.h ****  *  @details This can be used to configure a a single input, 
  24:../../libDaisy//src/per/adc.h ****  *           or a multiplexed input, allowing up to 8 inputs on 
  25:../../libDaisy//src/per/adc.h ****  *           one channel.
  26:../../libDaisy//src/per/adc.h ****  *  @note    Sharing data lines to multiple muxes _is_ possible, but
  27:../../libDaisy//src/per/adc.h ****  *           each channel sharing data lines must be set to the maximum
  28:../../libDaisy//src/per/adc.h ****  *           number of channels, even if some multiplexers have fewer
  29:../../libDaisy//src/per/adc.h ****  *           inputs connected.
  30:../../libDaisy//src/per/adc.h **** */
  31:../../libDaisy//src/per/adc.h **** struct AdcChannelConfig
  32:../../libDaisy//src/per/adc.h **** {
  33:../../libDaisy//src/per/adc.h ****     /** Which pin to use for multiplexing */
  34:../../libDaisy//src/per/adc.h ****     enum MuxPin
  35:../../libDaisy//src/per/adc.h ****     {
  36:../../libDaisy//src/per/adc.h ****         MUX_SEL_0,    /**< & */
  37:../../libDaisy//src/per/adc.h ****         MUX_SEL_1,    /**< & */
  38:../../libDaisy//src/per/adc.h ****         MUX_SEL_2,    /**< & */
ARM GAS  /var/folders/cl/k1vt3d7567s5t107m3sv9whr0000gn/T//cclnrocj.s 			page 5


  39:../../libDaisy//src/per/adc.h ****         MUX_SEL_LAST, /**< & */
  40:../../libDaisy//src/per/adc.h ****     };
  41:../../libDaisy//src/per/adc.h **** 
  42:../../libDaisy//src/per/adc.h ****     /** Initializes a single ADC pin as an ADC. 
  43:../../libDaisy//src/per/adc.h ****     \param pin Pin to init.
  44:../../libDaisy//src/per/adc.h ****      */
  45:../../libDaisy//src/per/adc.h ****     void InitSingle(dsy_gpio_pin pin);
  46:../../libDaisy//src/per/adc.h **** 
  47:../../libDaisy//src/per/adc.h ****     /** 
  48:../../libDaisy//src/per/adc.h ****     Initializes a single ADC pin as a Multiplexed ADC.
  49:../../libDaisy//src/per/adc.h ****     Requires a CD405X Multiplexer connected to the pin.
  50:../../libDaisy//src/per/adc.h ****     You only need to supply the mux pins that are required,
  51:../../libDaisy//src/per/adc.h ****     e.g. a 4052 mux would only require mux_0 and mux_1.
  52:../../libDaisy//src/per/adc.h ****     Internal Callbacks handle the pin addressing.
  53:../../libDaisy//src/per/adc.h ****     \param mux_channels must be 1-8
  54:../../libDaisy//src/per/adc.h ****     \param mux_0 First mux pin
  55:../../libDaisy//src/per/adc.h ****     \param mux_1 Second mux pin
  56:../../libDaisy//src/per/adc.h ****     \param mux_2 Third mux pin
  57:../../libDaisy//src/per/adc.h ****     \param adc_pin &
  58:../../libDaisy//src/per/adc.h ****     */
  59:../../libDaisy//src/per/adc.h ****     void InitMux(dsy_gpio_pin adc_pin,
  60:../../libDaisy//src/per/adc.h ****                  size_t       mux_channels,
  61:../../libDaisy//src/per/adc.h ****                  dsy_gpio_pin mux_0,
  62:../../libDaisy//src/per/adc.h ****                  dsy_gpio_pin mux_1 = {DSY_GPIOX, 0},
  63:../../libDaisy//src/per/adc.h ****                  dsy_gpio_pin mux_2 = {DSY_GPIOX, 0});
  64:../../libDaisy//src/per/adc.h **** 
  65:../../libDaisy//src/per/adc.h ****     dsy_gpio pin_;                   /**< & */
  66:../../libDaisy//src/per/adc.h ****     dsy_gpio mux_pin_[MUX_SEL_LAST]; /**< & */
  67:../../libDaisy//src/per/adc.h ****     uint8_t  mux_channels_;          /**< & */
  68:../../libDaisy//src/per/adc.h **** };
  69:../../libDaisy//src/per/adc.h **** 
  70:../../libDaisy//src/per/adc.h **** /**
  71:../../libDaisy//src/per/adc.h ****    @brief Handler for analog to digital conversion
  72:../../libDaisy//src/per/adc.h **** */
  73:../../libDaisy//src/per/adc.h **** class AdcHandle
  74:../../libDaisy//src/per/adc.h **** {
  75:../../libDaisy//src/per/adc.h ****   public:
  76:../../libDaisy//src/per/adc.h ****     /** Supported oversampling amounts */
  77:../../libDaisy//src/per/adc.h ****     enum OverSampling
  78:../../libDaisy//src/per/adc.h ****     {
  79:../../libDaisy//src/per/adc.h ****         OVS_NONE, /**< & */
  80:../../libDaisy//src/per/adc.h ****         OVS_4,    /**< & */
  81:../../libDaisy//src/per/adc.h ****         OVS_8,    /**< & */
  82:../../libDaisy//src/per/adc.h ****         OVS_16,   /**< & */
  83:../../libDaisy//src/per/adc.h ****         OVS_32,   /**< & */
  84:../../libDaisy//src/per/adc.h ****         OVS_64,   /**< & */
  85:../../libDaisy//src/per/adc.h ****         OVS_128,  /**< & */
  86:../../libDaisy//src/per/adc.h ****         OVS_256,  /**< & */
  87:../../libDaisy//src/per/adc.h ****         OVS_512,  /**< & */
  88:../../libDaisy//src/per/adc.h ****         OVS_1024, /**< & */
  89:../../libDaisy//src/per/adc.h ****         OVS_LAST, /**< & */
  90:../../libDaisy//src/per/adc.h ****     };
  91:../../libDaisy//src/per/adc.h **** 
  92:../../libDaisy//src/per/adc.h ****     AdcHandle() {}
  93:../../libDaisy//src/per/adc.h ****     ~AdcHandle() {}
  50              		.loc 4 93 5 is_stmt 1 view .LVU5
  51              		.loc 4 93 5 is_stmt 0 view .LVU6
ARM GAS  /var/folders/cl/k1vt3d7567s5t107m3sv9whr0000gn/T//cclnrocj.s 			page 6


  52              	.LBE192:
  53              	.LBB193:
  54              	.LBI193:
  55              		.file 5 "../../libDaisy//src/hid/audio.h"
   1:../../libDaisy//src/hid/audio.h **** #ifndef DSY_AUDIO_H
   2:../../libDaisy//src/hid/audio.h **** #define DSY_AUDIO_H /**< & */
   3:../../libDaisy//src/hid/audio.h **** 
   4:../../libDaisy//src/hid/audio.h **** #include "per/sai.h"
   5:../../libDaisy//src/hid/audio.h **** 
   6:../../libDaisy//src/hid/audio.h **** namespace daisy
   7:../../libDaisy//src/hid/audio.h **** {
   8:../../libDaisy//src/hid/audio.h **** /** @brief Audio Engine Handle
   9:../../libDaisy//src/hid/audio.h ****  *  @ingroup audio 
  10:../../libDaisy//src/hid/audio.h ****  *  @details This class allows for higher level access to an audio engine.
  11:../../libDaisy//src/hid/audio.h ****  *           If you're using a SOM like the DaisySeed or DaisyPatchSM (or any 
  12:../../libDaisy//src/hid/audio.h ****  *            board that includes one of those objects) then the intialization
  13:../../libDaisy//src/hid/audio.h ****  *            is already taken  care of.
  14:../../libDaisy//src/hid/audio.h ****  *           If you're setting up your own custom hardware, or need to make changes
  15:../../libDaisy//src/hid/audio.h ****  *           you will have to take the following steps:
  16:../../libDaisy//src/hid/audio.h ****  *             1. Create and Initialize an SaiHandle or two depending on your requirements
  17:../../libDaisy//src/hid/audio.h ****  *             2. Initialize the Audio Handle with the desired settings and the Initialized SaiHand
  18:../../libDaisy//src/hid/audio.h ****  *             3. If the connected codec requires special configuration or initialization, do so
  19:../../libDaisy//src/hid/audio.h ****  *             4. Write a callback method using either the AudioCallback or the InterleavingAudioCa
  20:../../libDaisy//src/hid/audio.h ****  *             5. Start the Audio using one of the StartAudio function
  21:../../libDaisy//src/hid/audio.h ****  */
  22:../../libDaisy//src/hid/audio.h **** class AudioHandle
  23:../../libDaisy//src/hid/audio.h **** {
  24:../../libDaisy//src/hid/audio.h ****   public:
  25:../../libDaisy//src/hid/audio.h ****     /** Manually configurable details about the Audio Engine */
  26:../../libDaisy//src/hid/audio.h ****     /** TODO: Figure out how to get samplerate in here. */
  27:../../libDaisy//src/hid/audio.h ****     struct Config
  28:../../libDaisy//src/hid/audio.h ****     {
  29:../../libDaisy//src/hid/audio.h ****         /** number of samples to process per callback */
  30:../../libDaisy//src/hid/audio.h ****         size_t blocksize;
  31:../../libDaisy//src/hid/audio.h **** 
  32:../../libDaisy//src/hid/audio.h ****         /**< Sample rate of audio */
  33:../../libDaisy//src/hid/audio.h ****         SaiHandle::Config::SampleRate samplerate;
  34:../../libDaisy//src/hid/audio.h **** 
  35:../../libDaisy//src/hid/audio.h ****         /** factor for adjustment before and after callback for hardware that may have extra headro
  36:../../libDaisy//src/hid/audio.h ****         float postgain;
  37:../../libDaisy//src/hid/audio.h **** 
  38:../../libDaisy//src/hid/audio.h ****         /** factor for additional one-sided compensation to audio path for hardware that may
  39:../../libDaisy//src/hid/audio.h ****          *  have unequal input/output ranges
  40:../../libDaisy//src/hid/audio.h ****          */
  41:../../libDaisy//src/hid/audio.h ****         float output_compensation;
  42:../../libDaisy//src/hid/audio.h **** 
  43:../../libDaisy//src/hid/audio.h ****         /** Sets default values for config struct */
  44:../../libDaisy//src/hid/audio.h ****         Config()
  45:../../libDaisy//src/hid/audio.h ****         : blocksize(48),
  46:../../libDaisy//src/hid/audio.h ****           samplerate(SaiHandle::Config::SampleRate::SAI_48KHZ),
  47:../../libDaisy//src/hid/audio.h ****           postgain(1.f),
  48:../../libDaisy//src/hid/audio.h ****           output_compensation(1.f)
  49:../../libDaisy//src/hid/audio.h ****         {
  50:../../libDaisy//src/hid/audio.h ****         }
  51:../../libDaisy//src/hid/audio.h ****     };
  52:../../libDaisy//src/hid/audio.h **** 
  53:../../libDaisy//src/hid/audio.h ****     enum class Result
ARM GAS  /var/folders/cl/k1vt3d7567s5t107m3sv9whr0000gn/T//cclnrocj.s 			page 7


  54:../../libDaisy//src/hid/audio.h ****     {
  55:../../libDaisy//src/hid/audio.h ****         OK,
  56:../../libDaisy//src/hid/audio.h ****         ERR,
  57:../../libDaisy//src/hid/audio.h ****     };
  58:../../libDaisy//src/hid/audio.h **** 
  59:../../libDaisy//src/hid/audio.h ****     /** Non-Interleaving input buffer
  60:../../libDaisy//src/hid/audio.h ****      * Buffer arranged by float[chn][sample] 
  61:../../libDaisy//src/hid/audio.h ****      * const so that the user can't modify the input
  62:../../libDaisy//src/hid/audio.h ****      */
  63:../../libDaisy//src/hid/audio.h ****     typedef const float* const* InputBuffer;
  64:../../libDaisy//src/hid/audio.h **** 
  65:../../libDaisy//src/hid/audio.h ****     /** Non-Interleaving output buffer
  66:../../libDaisy//src/hid/audio.h ****      * Arranged by float[chn][sample] 
  67:../../libDaisy//src/hid/audio.h ****      */
  68:../../libDaisy//src/hid/audio.h ****     typedef float** OutputBuffer;
  69:../../libDaisy//src/hid/audio.h **** 
  70:../../libDaisy//src/hid/audio.h ****     /** Type for a Non-Interleaving audio callback 
  71:../../libDaisy//src/hid/audio.h ****      * Non-Interleaving audio callbacks in daisy will be of this type
  72:../../libDaisy//src/hid/audio.h ****      */
  73:../../libDaisy//src/hid/audio.h ****     typedef void (*AudioCallback)(InputBuffer  in,
  74:../../libDaisy//src/hid/audio.h ****                                   OutputBuffer out,
  75:../../libDaisy//src/hid/audio.h ****                                   size_t       size);
  76:../../libDaisy//src/hid/audio.h **** 
  77:../../libDaisy//src/hid/audio.h ****     /** Interleaving Input buffer
  78:../../libDaisy//src/hid/audio.h ****      ** audio is prepared as { L0, R0, L1, R1, . . . LN, RN }]
  79:../../libDaisy//src/hid/audio.h ****      ** this is const, as the user shouldn't modify it
  80:../../libDaisy//src/hid/audio.h ****     */
  81:../../libDaisy//src/hid/audio.h ****     typedef const float* InterleavingInputBuffer;
  82:../../libDaisy//src/hid/audio.h **** 
  83:../../libDaisy//src/hid/audio.h ****     /** Interleaving Output buffer 
  84:../../libDaisy//src/hid/audio.h ****      ** audio is prepared as { L0, R0, L1, R1, . . . LN, RN }
  85:../../libDaisy//src/hid/audio.h ****     */
  86:../../libDaisy//src/hid/audio.h ****     typedef float* InterleavingOutputBuffer;
  87:../../libDaisy//src/hid/audio.h **** 
  88:../../libDaisy//src/hid/audio.h ****     /** Interleaving Audio Callback 
  89:../../libDaisy//src/hid/audio.h ****      * Interleaving audio callbacks in daisy must be of this type
  90:../../libDaisy//src/hid/audio.h ****      */
  91:../../libDaisy//src/hid/audio.h ****     typedef void (*InterleavingAudioCallback)(InterleavingInputBuffer  in,
  92:../../libDaisy//src/hid/audio.h ****                                               InterleavingOutputBuffer out,
  93:../../libDaisy//src/hid/audio.h ****                                               size_t                   size);
  94:../../libDaisy//src/hid/audio.h **** 
  95:../../libDaisy//src/hid/audio.h ****     AudioHandle() : pimpl_(nullptr) {}
  96:../../libDaisy//src/hid/audio.h ****     ~AudioHandle() {}
  56              		.loc 5 96 5 is_stmt 1 view .LVU7
  57              		.loc 5 96 5 is_stmt 0 view .LVU8
  58              	.LBE193:
  59              		.loc 1 22 19 view .LVU9
  60 0000 7047     		bx	lr
  61              		.cfi_endproc
  62              	.LFE2529:
  64              		.weak	_ZN5daisy9DaisySeedD1Ev
  65              		.thumb_set _ZN5daisy9DaisySeedD1Ev,_ZN5daisy9DaisySeedD2Ev
  66 0002 00BF     		.section	.text._ZN19ILI9341SpiTransport18TxCompleteCallbackEPvN5daisy9SpiHandle6ResultE,"axG",%pro
  67              		.align	1
  68              		.p2align 2,,3
  69              		.weak	_ZN19ILI9341SpiTransport18TxCompleteCallbackEPvN5daisy9SpiHandle6ResultE
  70              		.syntax unified
ARM GAS  /var/folders/cl/k1vt3d7567s5t107m3sv9whr0000gn/T//cclnrocj.s 			page 8


  71              		.thumb
  72              		.thumb_func
  74              	_ZN19ILI9341SpiTransport18TxCompleteCallbackEPvN5daisy9SpiHandle6ResultE:
  75              	.LVL1:
  76              	.LFB4798:
  77              		.file 6 "lcdlib/daisy_ILI9341.hpp"
   1:lcdlib/daisy_ILI9341.hpp **** #pragma once
   2:lcdlib/daisy_ILI9341.hpp **** 
   3:lcdlib/daisy_ILI9341.hpp **** #include <cstring>
   4:lcdlib/daisy_ILI9341.hpp **** 
   5:lcdlib/daisy_ILI9341.hpp **** #include "daisy_seed.h"
   6:lcdlib/daisy_ILI9341.hpp **** #include "daisy_pod.h"
   7:lcdlib/daisy_ILI9341.hpp **** #include "util/oled_fonts.h"
   8:lcdlib/daisy_ILI9341.hpp **** #include "hid/disp/graphics_common.h"
   9:lcdlib/daisy_ILI9341.hpp **** 
  10:lcdlib/daisy_ILI9341.hpp **** using namespace daisy;
  11:lcdlib/daisy_ILI9341.hpp **** 
  12:lcdlib/daisy_ILI9341.hpp ****  #define SPI1_NSS 7    // LCD CS 3
  13:lcdlib/daisy_ILI9341.hpp ****  #define SPI1_SCK 8    // LCD SCK 7
  14:lcdlib/daisy_ILI9341.hpp ****  #define SPI1_MOSI 10  // LCD MOSI 6
  15:lcdlib/daisy_ILI9341.hpp ****  #define ADC1_INP15 16 // PIN 23 - LCD RST 4
  16:lcdlib/daisy_ILI9341.hpp ****  #define DAC1_OUT2 22  //PIN 29 - LCD DC 5
  17:lcdlib/daisy_ILI9341.hpp **** 
  18:lcdlib/daisy_ILI9341.hpp **** // #define SPI1_MISO 9 // Not used
  19:lcdlib/daisy_ILI9341.hpp **** // #define I2C1_SCL 11
  20:lcdlib/daisy_ILI9341.hpp **** // #define I2C1_SDA 12
  21:lcdlib/daisy_ILI9341.hpp **** 
  22:lcdlib/daisy_ILI9341.hpp **** enum TFT_COLOR
  23:lcdlib/daisy_ILI9341.hpp **** {
  24:lcdlib/daisy_ILI9341.hpp ****     COLOR_BLACK = 0,
  25:lcdlib/daisy_ILI9341.hpp ****     COLOR_WHITE,
  26:lcdlib/daisy_ILI9341.hpp ****     COLOR_BLUE,
  27:lcdlib/daisy_ILI9341.hpp ****     COLOR_DARK_BLUE,
  28:lcdlib/daisy_ILI9341.hpp ****     COLOR_CYAN,
  29:lcdlib/daisy_ILI9341.hpp ****     COLOR_YELLOW,
  30:lcdlib/daisy_ILI9341.hpp ****     COLOR_DARK_YELLOW,
  31:lcdlib/daisy_ILI9341.hpp ****     COLOR_ORANGE,
  32:lcdlib/daisy_ILI9341.hpp ****     COLOR_RED,
  33:lcdlib/daisy_ILI9341.hpp ****     COLOR_DARK_RED,
  34:lcdlib/daisy_ILI9341.hpp ****     COLOR_GREEN,
  35:lcdlib/daisy_ILI9341.hpp ****     COLOR_DARK_GREEN,
  36:lcdlib/daisy_ILI9341.hpp ****     COLOR_LIGHT_GREEN,
  37:lcdlib/daisy_ILI9341.hpp ****     COLOR_GRAY,
  38:lcdlib/daisy_ILI9341.hpp ****     COLOR_DARK_GRAY,
  39:lcdlib/daisy_ILI9341.hpp ****     COLOR_LIGHT_GRAY,
  40:lcdlib/daisy_ILI9341.hpp ****     COLOR_MEDIUM_GRAY,
  41:lcdlib/daisy_ILI9341.hpp ****     COLOR_ABL_BG,
  42:lcdlib/daisy_ILI9341.hpp ****     COLOR_ABL_LINE,
  43:lcdlib/daisy_ILI9341.hpp ****     COLOR_ABL_D_LINE,
  44:lcdlib/daisy_ILI9341.hpp ****     COLOR_ABL_L_GRAY,
  45:lcdlib/daisy_ILI9341.hpp ****     COLOR_ABL_M_GRAY,
  46:lcdlib/daisy_ILI9341.hpp ****     NUMBER_OF_TFT_COLORS
  47:lcdlib/daisy_ILI9341.hpp **** };
  48:lcdlib/daisy_ILI9341.hpp **** 
  49:lcdlib/daisy_ILI9341.hpp **** /**
  50:lcdlib/daisy_ILI9341.hpp ****  * SPI Transport for ILI9341 TFT display devices
  51:lcdlib/daisy_ILI9341.hpp ****  */
ARM GAS  /var/folders/cl/k1vt3d7567s5t107m3sv9whr0000gn/T//cclnrocj.s 			page 9


  52:lcdlib/daisy_ILI9341.hpp **** class ILI9341SpiTransport
  53:lcdlib/daisy_ILI9341.hpp **** {
  54:lcdlib/daisy_ILI9341.hpp ****   public:
  55:lcdlib/daisy_ILI9341.hpp ****     void Init()
  56:lcdlib/daisy_ILI9341.hpp ****     {
  57:lcdlib/daisy_ILI9341.hpp ****         // Initialize SPI
  58:lcdlib/daisy_ILI9341.hpp ****         SpiHandle::Config spi_config;
  59:lcdlib/daisy_ILI9341.hpp ****         spi_config.periph    = SpiHandle::Config::Peripheral::SPI_1;
  60:lcdlib/daisy_ILI9341.hpp ****         spi_config.mode      = SpiHandle::Config::Mode::MASTER;
  61:lcdlib/daisy_ILI9341.hpp ****         spi_config.direction = SpiHandle::Config::Direction::TWO_LINES_TX_ONLY;
  62:lcdlib/daisy_ILI9341.hpp ****         spi_config.clock_polarity  = SpiHandle::Config::ClockPolarity::LOW;
  63:lcdlib/daisy_ILI9341.hpp ****         spi_config.baud_prescaler  = SpiHandle::Config::BaudPrescaler::PS_2;
  64:lcdlib/daisy_ILI9341.hpp ****         spi_config.clock_phase     = SpiHandle::Config::ClockPhase::ONE_EDGE;
  65:lcdlib/daisy_ILI9341.hpp ****         spi_config.nss             = SpiHandle::Config::NSS::HARD_OUTPUT;
  66:lcdlib/daisy_ILI9341.hpp ****         spi_config.datasize        = 8;
  67:lcdlib/daisy_ILI9341.hpp ****         spi_config.pin_config.sclk = {DSY_GPIOG, 11};
  68:lcdlib/daisy_ILI9341.hpp ****         spi_config.pin_config.mosi = {DSY_GPIOB, 5};
  69:lcdlib/daisy_ILI9341.hpp ****         spi_config.pin_config.nss  = {DSY_GPIOG, 10};
  70:lcdlib/daisy_ILI9341.hpp ****         spi_config.pin_config.miso = {DSY_GPIOX, 0}; // not used
  71:lcdlib/daisy_ILI9341.hpp **** 
  72:lcdlib/daisy_ILI9341.hpp ****         // v0.1 mix up
  73:lcdlib/daisy_ILI9341.hpp ****         uint8_t dc_pin    = 16;
  74:lcdlib/daisy_ILI9341.hpp ****         uint8_t reset_pin = 22;
  75:lcdlib/daisy_ILI9341.hpp **** 
  76:lcdlib/daisy_ILI9341.hpp ****         // DC pin
  77:lcdlib/daisy_ILI9341.hpp ****         pin_dc_.mode = DSY_GPIO_MODE_OUTPUT_PP;
  78:lcdlib/daisy_ILI9341.hpp ****         pin_dc_.pin  = DaisySeed::GetPin(dc_pin);
  79:lcdlib/daisy_ILI9341.hpp ****         dsy_gpio_init(&pin_dc_);
  80:lcdlib/daisy_ILI9341.hpp ****         // Reset pin
  81:lcdlib/daisy_ILI9341.hpp ****         pin_reset_.mode = DSY_GPIO_MODE_OUTPUT_PP;
  82:lcdlib/daisy_ILI9341.hpp ****         pin_reset_.pin  = DaisySeed::GetPin(reset_pin);
  83:lcdlib/daisy_ILI9341.hpp ****         dsy_gpio_init(&pin_reset_);
  84:lcdlib/daisy_ILI9341.hpp ****         // CS pin
  85:lcdlib/daisy_ILI9341.hpp ****         pin_cs_.mode = DSY_GPIO_MODE_OUTPUT_PP;
  86:lcdlib/daisy_ILI9341.hpp ****         pin_cs_.pin  = spi_config.pin_config.nss;
  87:lcdlib/daisy_ILI9341.hpp ****         dsy_gpio_init(&pin_cs_);
  88:lcdlib/daisy_ILI9341.hpp **** 
  89:lcdlib/daisy_ILI9341.hpp ****        spi_.Init(spi_config);
  90:lcdlib/daisy_ILI9341.hpp **** 
  91:lcdlib/daisy_ILI9341.hpp ****        InitPalette();
  92:lcdlib/daisy_ILI9341.hpp ****     };
  93:lcdlib/daisy_ILI9341.hpp **** 
  94:lcdlib/daisy_ILI9341.hpp ****     void Reset()
  95:lcdlib/daisy_ILI9341.hpp ****     {
  96:lcdlib/daisy_ILI9341.hpp ****         dsy_gpio_write(&pin_reset_, 0);
  97:lcdlib/daisy_ILI9341.hpp ****         System::Delay(100);
  98:lcdlib/daisy_ILI9341.hpp ****         dsy_gpio_write(&pin_reset_, 1);
  99:lcdlib/daisy_ILI9341.hpp ****         System::Delay(100);
 100:lcdlib/daisy_ILI9341.hpp ****     }
 101:lcdlib/daisy_ILI9341.hpp **** 
 102:lcdlib/daisy_ILI9341.hpp ****     // an internal function to handle SPI DMA callbacks
 103:lcdlib/daisy_ILI9341.hpp ****     // called when an DMA transmission completes and the next driver must be updated
 104:lcdlib/daisy_ILI9341.hpp ****     static void TxCompleteCallback(void* context, SpiHandle::Result result)
  78              		.loc 6 104 17 is_stmt 1 view -0
  79              		.cfi_startproc
  80              		@ args = 0, pretend = 0, frame = 0
  81              		@ frame_needed = 0, uses_anonymous_args = 0
ARM GAS  /var/folders/cl/k1vt3d7567s5t107m3sv9whr0000gn/T//cclnrocj.s 			page 10


 105:lcdlib/daisy_ILI9341.hpp ****     {
 106:lcdlib/daisy_ILI9341.hpp ****         if(result == SpiHandle::Result::OK)
  82              		.loc 6 106 9 view .LVU11
  83              	.LBB203:
  84 0000 69B9     		cbnz	r1, .L7
  85              	.LVL2:
  86              		.loc 6 106 9 is_stmt 0 view .LVU12
  87              	.LBE203:
  88              	.LBB204:
  89              	.LBI204:
 104:lcdlib/daisy_ILI9341.hpp ****     {
  90              		.loc 6 104 17 is_stmt 1 view .LVU13
  91              	.LBB205:
 107:lcdlib/daisy_ILI9341.hpp ****         {
 108:lcdlib/daisy_ILI9341.hpp ****             auto transport     = static_cast<ILI9341SpiTransport*>(context);
  92              		.loc 6 108 13 view .LVU14
 109:lcdlib/daisy_ILI9341.hpp ****             auto transfer_size = transport->GetTransferSize();
  93              		.loc 6 109 13 view .LVU15
  94              	.LBB206:
  95              	.LBI206:
 110:lcdlib/daisy_ILI9341.hpp ****             transport->remaining_buff -= transfer_size;
 111:lcdlib/daisy_ILI9341.hpp ****             if(transport->remaining_buff > 0)
 112:lcdlib/daisy_ILI9341.hpp ****             {
 113:lcdlib/daisy_ILI9341.hpp ****                 transport->SendDataDMA(
 114:lcdlib/daisy_ILI9341.hpp ****                     &frame_buffer[buffer_size - transport->remaining_buff],
 115:lcdlib/daisy_ILI9341.hpp ****                     transfer_size);
 116:lcdlib/daisy_ILI9341.hpp **** 
 117:lcdlib/daisy_ILI9341.hpp ****                 // 16bit transfer
 118:lcdlib/daisy_ILI9341.hpp ****                 // transport->SendDataDMA(
 119:lcdlib/daisy_ILI9341.hpp ****                 //     &frame_buffer[2 * transport->buf_chunk_size],
 120:lcdlib/daisy_ILI9341.hpp ****                 //     transport->buf_chunk_size);
 121:lcdlib/daisy_ILI9341.hpp ****             }
 122:lcdlib/daisy_ILI9341.hpp ****             else
 123:lcdlib/daisy_ILI9341.hpp ****             {
 124:lcdlib/daisy_ILI9341.hpp ****                 transport->dma_busy = false;
 125:lcdlib/daisy_ILI9341.hpp **** 
 126:lcdlib/daisy_ILI9341.hpp ****                 // 8 bit transfer
 127:lcdlib/daisy_ILI9341.hpp ****                 // auto* spi_h = transport->spi_.GetHandle();
 128:lcdlib/daisy_ILI9341.hpp ****                 // spi_h->Instance->CFG1 &= ~SPI_CFG1_DSIZE_3;
 129:lcdlib/daisy_ILI9341.hpp ****                 // spi_h->Instance->CFG2 &= ~SPI_CFG2_LSBFRST;
 130:lcdlib/daisy_ILI9341.hpp ****                 // spi_h->Init.DataSize = SPI_DATASIZE_8BIT;
 131:lcdlib/daisy_ILI9341.hpp ****             }
 132:lcdlib/daisy_ILI9341.hpp ****         }
 133:lcdlib/daisy_ILI9341.hpp ****     }
 134:lcdlib/daisy_ILI9341.hpp **** 
 135:lcdlib/daisy_ILI9341.hpp ****     SpiHandle::Result SendDataDMA()
 136:lcdlib/daisy_ILI9341.hpp ****     {
 137:lcdlib/daisy_ILI9341.hpp ****         remaining_buff = buffer_size;
 138:lcdlib/daisy_ILI9341.hpp ****         dma_busy       = true;
 139:lcdlib/daisy_ILI9341.hpp **** 
 140:lcdlib/daisy_ILI9341.hpp ****         // auto* spi_h = spi_.GetHandle();
 141:lcdlib/daisy_ILI9341.hpp ****         // spi_h->Instance->CFG1 |= SPI_CFG1_DSIZE_3;
 142:lcdlib/daisy_ILI9341.hpp ****         // spi_h->Instance->CFG2 |= SPI_CFG2_LSBFRST;
 143:lcdlib/daisy_ILI9341.hpp ****         // spi_h->Init.DataSize = SPI_DATASIZE_16BIT; // 15;
 144:lcdlib/daisy_ILI9341.hpp **** 
 145:lcdlib/daisy_ILI9341.hpp ****         return SendDataDMA(frame_buffer, buf_chunk_size);
 146:lcdlib/daisy_ILI9341.hpp ****     };
ARM GAS  /var/folders/cl/k1vt3d7567s5t107m3sv9whr0000gn/T//cclnrocj.s 			page 11


 147:lcdlib/daisy_ILI9341.hpp **** 
 148:lcdlib/daisy_ILI9341.hpp ****     SpiHandle::Result SendDataDMA(uint8_t* buff, size_t size)
 149:lcdlib/daisy_ILI9341.hpp ****     {
 150:lcdlib/daisy_ILI9341.hpp ****         dsy_gpio_write(&pin_dc_, 1);
 151:lcdlib/daisy_ILI9341.hpp ****         return spi_.DmaTransmit(buff, size, nullptr, &TxCompleteCallback, this);
 152:lcdlib/daisy_ILI9341.hpp ****     };
 153:lcdlib/daisy_ILI9341.hpp **** 
 154:lcdlib/daisy_ILI9341.hpp ****     uint32_t GetTransferSize() const
  96              		.loc 6 154 14 view .LVU16
  97              	.LBB207:
 155:lcdlib/daisy_ILI9341.hpp ****     {
 156:lcdlib/daisy_ILI9341.hpp ****         return remaining_buff < buf_chunk_size ? remaining_buff
  98              		.loc 6 156 9 view .LVU17
  99              	.LBE207:
 100              	.LBE206:
 101              	.LBE205:
 102              	.LBE204:
 104:lcdlib/daisy_ILI9341.hpp ****     {
 103              		.loc 6 104 17 is_stmt 0 view .LVU18
 104 0002 F0B5     		push	{r4, r5, r6, r7, lr}
 105              		.cfi_def_cfa_offset 20
 106              		.cfi_offset 4, -20
 107              		.cfi_offset 5, -16
 108              		.cfi_offset 6, -12
 109              		.cfi_offset 7, -8
 110              		.cfi_offset 14, -4
 111              	.LBB221:
 112              	.LBB218:
 113              	.LBB210:
 114              	.LBB208:
 115              		.loc 6 156 16 view .LVU19
 116 0004 4768     		ldr	r7, [r0, #4]
 117              	.LBE208:
 118              	.LBE210:
 119              	.LBE218:
 120              	.LBE221:
 104:lcdlib/daisy_ILI9341.hpp ****     {
 121              		.loc 6 104 17 view .LVU20
 122 0006 83B0     		sub	sp, sp, #12
 123              		.cfi_def_cfa_offset 32
 124              	.LBB222:
 125              	.LBB219:
 126              	.LBB211:
 127              	.LBB209:
 128              		.loc 6 156 31 view .LVU21
 129 0008 0689     		ldrh	r6, [r0, #8]
 130 000a 0446     		mov	r4, r0
 157:lcdlib/daisy_ILI9341.hpp ****                                                : buf_chunk_size;
 131              		.loc 6 157 50 view .LVU22
 132 000c BE42     		cmp	r6, r7
 133 000e 28BF     		it	cs
 134 0010 3E46     		movcs	r6, r7
 135              	.LVL3:
 136              		.loc 6 157 50 view .LVU23
 137              	.LBE209:
 138              	.LBE211:
 110:lcdlib/daisy_ILI9341.hpp ****             if(transport->remaining_buff > 0)
ARM GAS  /var/folders/cl/k1vt3d7567s5t107m3sv9whr0000gn/T//cclnrocj.s 			page 12


 139              		.loc 6 110 13 is_stmt 1 view .LVU24
 110:lcdlib/daisy_ILI9341.hpp ****             if(transport->remaining_buff > 0)
 140              		.loc 6 110 39 is_stmt 0 view .LVU25
 141 0012 BB1B     		subs	r3, r7, r6
 142 0014 4360     		str	r3, [r0, #4]
 111:lcdlib/daisy_ILI9341.hpp ****             {
 143              		.loc 6 111 13 is_stmt 1 view .LVU26
 144 0016 1BB9     		cbnz	r3, .L10
 124:lcdlib/daisy_ILI9341.hpp **** 
 145              		.loc 6 124 17 view .LVU27
 124:lcdlib/daisy_ILI9341.hpp **** 
 146              		.loc 6 124 37 is_stmt 0 view .LVU28
 147 0018 0370     		strb	r3, [r0]
 148              	.LVL4:
 124:lcdlib/daisy_ILI9341.hpp **** 
 149              		.loc 6 124 37 view .LVU29
 150              	.LBE219:
 151              	.LBE222:
 133:lcdlib/daisy_ILI9341.hpp **** 
 152              		.loc 6 133 5 view .LVU30
 153 001a 03B0     		add	sp, sp, #12
 154              		.cfi_def_cfa_offset 20
 155              		@ sp needed
 156 001c F0BD     		pop	{r4, r5, r6, r7, pc}
 157              	.L7:
 158              		.cfi_def_cfa_offset 0
 159              		.cfi_restore 4
 160              		.cfi_restore 5
 161              		.cfi_restore 6
 162              		.cfi_restore 7
 163              		.cfi_restore 14
 164 001e 7047     		bx	lr
 165              	.LVL5:
 166              	.L10:
 167              		.cfi_def_cfa_offset 32
 168              		.cfi_offset 4, -20
 169              		.cfi_offset 5, -16
 170              		.cfi_offset 6, -12
 171              		.cfi_offset 7, -8
 172              		.cfi_offset 14, -4
 173              	.LBB223:
 174              	.LBB220:
 113:lcdlib/daisy_ILI9341.hpp ****                     &frame_buffer[buffer_size - transport->remaining_buff],
 175              		.loc 6 113 17 is_stmt 1 view .LVU31
 176              	.LBB212:
 177              	.LBI212:
 148:lcdlib/daisy_ILI9341.hpp ****     {
 178              		.loc 6 148 23 view .LVU32
 179              	.LBB213:
 150:lcdlib/daisy_ILI9341.hpp ****         return spi_.DmaTransmit(buff, size, nullptr, &TxCompleteCallback, this);
 180              		.loc 6 150 9 view .LVU33
 181              	.LBE213:
 182              	.LBE212:
 114:lcdlib/daisy_ILI9341.hpp ****                     transfer_size);
 183              		.loc 6 114 47 is_stmt 0 view .LVU34
 184 0020 C7F51637 		rsb	r7, r7, #153600
 185              	.LVL6:
ARM GAS  /var/folders/cl/k1vt3d7567s5t107m3sv9whr0000gn/T//cclnrocj.s 			page 13


 114:lcdlib/daisy_ILI9341.hpp ****                     transfer_size);
 186              		.loc 6 114 47 view .LVU35
 187 0024 0D46     		mov	r5, r1
 188              	.LBB216:
 189              	.LBB214:
 150:lcdlib/daisy_ILI9341.hpp ****         return spi_.DmaTransmit(buff, size, nullptr, &TxCompleteCallback, this);
 190              		.loc 6 150 23 view .LVU36
 191 0026 4030     		adds	r0, r0, #64
 192              	.LVL7:
 150:lcdlib/daisy_ILI9341.hpp ****         return spi_.DmaTransmit(buff, size, nullptr, &TxCompleteCallback, this);
 193              		.loc 6 150 23 view .LVU37
 194 0028 0121     		movs	r1, #1
 195              	.LVL8:
 150:lcdlib/daisy_ILI9341.hpp ****         return spi_.DmaTransmit(buff, size, nullptr, &TxCompleteCallback, this);
 196              		.loc 6 150 23 view .LVU38
 197 002a FFF7FEFF 		bl	dsy_gpio_write
 198              	.LVL9:
 151:lcdlib/daisy_ILI9341.hpp ****     };
 199              		.loc 6 151 9 is_stmt 1 view .LVU39
 200              	.LBE214:
 201              	.LBE216:
 114:lcdlib/daisy_ILI9341.hpp ****                     transfer_size);
 202              		.loc 6 114 47 is_stmt 0 view .LVU40
 203 002e 3744     		add	r7, r7, r6
 113:lcdlib/daisy_ILI9341.hpp ****                     &frame_buffer[buffer_size - transport->remaining_buff],
 204              		.loc 6 113 39 view .LVU41
 205 0030 0649     		ldr	r1, .L11
 206              	.LBB217:
 207              	.LBB215:
 151:lcdlib/daisy_ILI9341.hpp ****     };
 208              		.loc 6 151 32 view .LVU42
 209 0032 04F10C00 		add	r0, r4, #12
 210 0036 0194     		str	r4, [sp, #4]
 211 0038 2B46     		mov	r3, r5
 212 003a 054C     		ldr	r4, .L11+4
 213              	.LVL10:
 151:lcdlib/daisy_ILI9341.hpp ****     };
 214              		.loc 6 151 32 view .LVU43
 215 003c 3944     		add	r1, r1, r7
 216 003e 3246     		mov	r2, r6
 217 0040 0094     		str	r4, [sp]
 218 0042 FFF7FEFF 		bl	_ZN5daisy9SpiHandle11DmaTransmitEPhjPFvPvEPFvS2_NS0_6ResultEES2_
 219              	.LVL11:
 151:lcdlib/daisy_ILI9341.hpp ****     };
 220              		.loc 6 151 32 view .LVU44
 221              	.LBE215:
 222              	.LBE217:
 223              	.LBE220:
 224              	.LBE223:
 133:lcdlib/daisy_ILI9341.hpp **** 
 225              		.loc 6 133 5 view .LVU45
 226 0046 03B0     		add	sp, sp, #12
 227              		.cfi_def_cfa_offset 20
 228              		@ sp needed
 229 0048 F0BD     		pop	{r4, r5, r6, r7, pc}
 230              	.LVL12:
 231              	.L12:
ARM GAS  /var/folders/cl/k1vt3d7567s5t107m3sv9whr0000gn/T//cclnrocj.s 			page 14


 133:lcdlib/daisy_ILI9341.hpp **** 
 232              		.loc 6 133 5 view .LVU46
 233 004a 00BF     		.align	2
 234              	.L11:
 235 004c 00000000 		.word	_ZN19ILI9341SpiTransport12frame_bufferE
 236 0050 00000000 		.word	_ZN19ILI9341SpiTransport18TxCompleteCallbackEPvN5daisy9SpiHandle6ResultE
 237              		.cfi_endproc
 238              	.LFE4798:
 240              		.section	.rodata._ZN8UiDriver10InitDriverEv.str1.4,"aMS",%progbits,1
 241              		.align	2
 242              	.LC6:
 243 0000 08822700 		.ascii	"\010\202'\000"
 244              		.align	2
 245              	.LC7:
 246 0004 0F312B0C 		.ascii	"\0171+\014\016\010N\3617\007\020\003\016\011\000"
 246      0E084EF1 
 246      37071003 
 246      0E0900
 247              		.section	.text._ZN8UiDriver10InitDriverEv,"axG",%progbits,_ZN8UiDriver10InitDriverEv,comdat
 248              		.align	1
 249              		.p2align 2,,3
 250              		.weak	_ZN8UiDriver10InitDriverEv
 251              		.syntax unified
 252              		.thumb
 253              		.thumb_func
 255              	_ZN8UiDriver10InitDriverEv:
 256              	.LVL13:
 257              	.LFB4810:
 158:lcdlib/daisy_ILI9341.hpp ****         // return remaining_buff < 2 * buf_chunk_size ? remaining_buff
 159:lcdlib/daisy_ILI9341.hpp ****         //                                            : 2 * buf_chunk_size;
 160:lcdlib/daisy_ILI9341.hpp ****     }
 161:lcdlib/daisy_ILI9341.hpp **** 
 162:lcdlib/daisy_ILI9341.hpp ****     SpiHandle::Result SendCommand(uint8_t cmd)
 163:lcdlib/daisy_ILI9341.hpp ****     {
 164:lcdlib/daisy_ILI9341.hpp ****         dsy_gpio_write(&pin_dc_, 0);
 165:lcdlib/daisy_ILI9341.hpp ****         return spi_.BlockingTransmit(&cmd, 1);
 166:lcdlib/daisy_ILI9341.hpp ****     };
 167:lcdlib/daisy_ILI9341.hpp **** 
 168:lcdlib/daisy_ILI9341.hpp ****     SpiHandle::Result SendData(uint8_t* buff, size_t size)
 169:lcdlib/daisy_ILI9341.hpp ****     {
 170:lcdlib/daisy_ILI9341.hpp ****         dsy_gpio_write(&pin_dc_, 1);
 171:lcdlib/daisy_ILI9341.hpp ****         return spi_.BlockingTransmit(buff, size);
 172:lcdlib/daisy_ILI9341.hpp ****     };
 173:lcdlib/daisy_ILI9341.hpp **** 
 174:lcdlib/daisy_ILI9341.hpp ****     void SetAddressWindow(uint16_t x0, uint16_t y0, uint16_t x1, uint16_t y1)
 175:lcdlib/daisy_ILI9341.hpp ****     {
 176:lcdlib/daisy_ILI9341.hpp ****         // column address set
 177:lcdlib/daisy_ILI9341.hpp ****         SendCommand(0x2A); // CASET
 178:lcdlib/daisy_ILI9341.hpp ****         {
 179:lcdlib/daisy_ILI9341.hpp ****             uint8_t data[4] = {static_cast<uint8_t>((x0 >> 8) & 0xFF),
 180:lcdlib/daisy_ILI9341.hpp ****                                static_cast<uint8_t>(x0 & 0xFF),
 181:lcdlib/daisy_ILI9341.hpp ****                                static_cast<uint8_t>((x1 >> 8) & 0xFF),
 182:lcdlib/daisy_ILI9341.hpp ****                                static_cast<uint8_t>(x1 & 0xFF)};
 183:lcdlib/daisy_ILI9341.hpp ****             SendData(data, 4);
 184:lcdlib/daisy_ILI9341.hpp ****         }
 185:lcdlib/daisy_ILI9341.hpp **** 
 186:lcdlib/daisy_ILI9341.hpp ****         // row address set
ARM GAS  /var/folders/cl/k1vt3d7567s5t107m3sv9whr0000gn/T//cclnrocj.s 			page 15


 187:lcdlib/daisy_ILI9341.hpp ****         SendCommand(0x2B); // RASET
 188:lcdlib/daisy_ILI9341.hpp ****         {
 189:lcdlib/daisy_ILI9341.hpp ****             uint8_t data[4] = {static_cast<uint8_t>((y0 >> 8) & 0xFF),
 190:lcdlib/daisy_ILI9341.hpp ****                                static_cast<uint8_t>(y0 & 0xFF),
 191:lcdlib/daisy_ILI9341.hpp ****                                static_cast<uint8_t>((y1 >> 8) & 0xFF),
 192:lcdlib/daisy_ILI9341.hpp ****                                static_cast<uint8_t>(y1 & 0xFF)};
 193:lcdlib/daisy_ILI9341.hpp ****             SendData(data, 4);
 194:lcdlib/daisy_ILI9341.hpp ****         }
 195:lcdlib/daisy_ILI9341.hpp **** 
 196:lcdlib/daisy_ILI9341.hpp ****         // write to RAM
 197:lcdlib/daisy_ILI9341.hpp ****         SendCommand(0x2C); // RAMWR
 198:lcdlib/daisy_ILI9341.hpp ****     }
 199:lcdlib/daisy_ILI9341.hpp **** 
 200:lcdlib/daisy_ILI9341.hpp ****     void PaintPixel(uint32_t id, uint8_t color_id, uint8_t alpha = 255) const
 201:lcdlib/daisy_ILI9341.hpp ****     {
 202:lcdlib/daisy_ILI9341.hpp ****         auto color = tftPalette[color_id];
 203:lcdlib/daisy_ILI9341.hpp **** 
 204:lcdlib/daisy_ILI9341.hpp ****         if(alpha != 255)
 205:lcdlib/daisy_ILI9341.hpp ****         {
 206:lcdlib/daisy_ILI9341.hpp ****             auto bg_color = tftPalette[color_mem[id]];
 207:lcdlib/daisy_ILI9341.hpp ****             color         = Blend565(color, bg_color, alpha);
 208:lcdlib/daisy_ILI9341.hpp ****         }
 209:lcdlib/daisy_ILI9341.hpp **** 
 210:lcdlib/daisy_ILI9341.hpp ****         color_mem[id] = color_id;
 211:lcdlib/daisy_ILI9341.hpp **** 
 212:lcdlib/daisy_ILI9341.hpp ****         frame_buffer[id]     = color >> 8;
 213:lcdlib/daisy_ILI9341.hpp ****         frame_buffer[id + 1] = color & 0xFF;
 214:lcdlib/daisy_ILI9341.hpp ****     }
 215:lcdlib/daisy_ILI9341.hpp **** 
 216:lcdlib/daisy_ILI9341.hpp ****     uint16_t GetPixel(uint32_t id) { return color_mem[id]; }
 217:lcdlib/daisy_ILI9341.hpp **** 
 218:lcdlib/daisy_ILI9341.hpp ****     bool     dma_busy       = false;
 219:lcdlib/daisy_ILI9341.hpp ****     uint32_t remaining_buff = 0;
 220:lcdlib/daisy_ILI9341.hpp **** 
 221:lcdlib/daisy_ILI9341.hpp ****     static uint32_t const buffer_size    = 153600;          // 320 * 240 * 2
 222:lcdlib/daisy_ILI9341.hpp ****     const uint16_t        buf_chunk_size = buffer_size / 3; // 8bit data
 223:lcdlib/daisy_ILI9341.hpp ****     //const uint16_t buf_chunk_size = buffer_size / 4; // 16bit data
 224:lcdlib/daisy_ILI9341.hpp **** 
 225:lcdlib/daisy_ILI9341.hpp ****     static uint8_t DMA_BUFFER_MEM_SECTION frame_buffer[buffer_size];
 226:lcdlib/daisy_ILI9341.hpp ****     static uint8_t DSY_SDRAM_BSS          color_mem[buffer_size / 2];
 227:lcdlib/daisy_ILI9341.hpp ****     SpiHandle                             spi_;
 228:lcdlib/daisy_ILI9341.hpp **** 
 229:lcdlib/daisy_ILI9341.hpp ****     uint16_t tftPalette[NUMBER_OF_TFT_COLORS];
 230:lcdlib/daisy_ILI9341.hpp **** 
 231:lcdlib/daisy_ILI9341.hpp ****   private:
 232:lcdlib/daisy_ILI9341.hpp ****     dsy_gpio pin_reset_;
 233:lcdlib/daisy_ILI9341.hpp ****     dsy_gpio pin_dc_;
 234:lcdlib/daisy_ILI9341.hpp ****     dsy_gpio pin_cs_;
 235:lcdlib/daisy_ILI9341.hpp **** 
 236:lcdlib/daisy_ILI9341.hpp **** 
 237:lcdlib/daisy_ILI9341.hpp ****     //   rrrrrggggggbbbbb
 238:lcdlib/daisy_ILI9341.hpp **** #define MASK_RB 63519       // 0b1111100000011111
 239:lcdlib/daisy_ILI9341.hpp **** #define MASK_G 2016         // 0b0000011111100000
 240:lcdlib/daisy_ILI9341.hpp **** #define MASK_MUL_RB 4065216 // 0b1111100000011111000000
 241:lcdlib/daisy_ILI9341.hpp **** #define MASK_MUL_G 129024   // 0b0000011111100000000000
 242:lcdlib/daisy_ILI9341.hpp **** #define MAX_ALPHA 64        // 6bits+1 with rounding
 243:lcdlib/daisy_ILI9341.hpp **** 
ARM GAS  /var/folders/cl/k1vt3d7567s5t107m3sv9whr0000gn/T//cclnrocj.s 			page 16


 244:lcdlib/daisy_ILI9341.hpp ****     uint16_t Blend565(uint16_t fg, uint16_t bg, uint8_t alpha) const
 245:lcdlib/daisy_ILI9341.hpp ****     {
 246:lcdlib/daisy_ILI9341.hpp ****         // alpha for foreground multiplication
 247:lcdlib/daisy_ILI9341.hpp ****         // convert from 8bit to (6bit+1) with rounding
 248:lcdlib/daisy_ILI9341.hpp ****         // will be in [0..64] inclusive
 249:lcdlib/daisy_ILI9341.hpp ****         alpha = (alpha + 2) >> 2;
 250:lcdlib/daisy_ILI9341.hpp ****         // "beta" for background multiplication; (6bit+1);
 251:lcdlib/daisy_ILI9341.hpp ****         // will be in [0..64] inclusive
 252:lcdlib/daisy_ILI9341.hpp ****         uint8_t beta = MAX_ALPHA - alpha;
 253:lcdlib/daisy_ILI9341.hpp ****         // so (0..64)*alpha + (0..64)*beta always in 0..64
 254:lcdlib/daisy_ILI9341.hpp **** 
 255:lcdlib/daisy_ILI9341.hpp ****         return (uint16_t)((((alpha * (uint32_t)(fg & MASK_RB)
 256:lcdlib/daisy_ILI9341.hpp ****                              + beta * (uint32_t)(bg & MASK_RB))
 257:lcdlib/daisy_ILI9341.hpp ****                             & MASK_MUL_RB)
 258:lcdlib/daisy_ILI9341.hpp ****                            | ((alpha * (fg & MASK_G) + beta * (bg & MASK_G))
 259:lcdlib/daisy_ILI9341.hpp ****                               & MASK_MUL_G))
 260:lcdlib/daisy_ILI9341.hpp ****                           >> 6);
 261:lcdlib/daisy_ILI9341.hpp ****     }
 262:lcdlib/daisy_ILI9341.hpp **** 
 263:lcdlib/daisy_ILI9341.hpp ****     /*
 264:lcdlib/daisy_ILI9341.hpp ****   result masks of multiplications
 265:lcdlib/daisy_ILI9341.hpp ****   uppercase: usable bits of multiplications
 266:lcdlib/daisy_ILI9341.hpp ****   RRRRRrrrrrrBBBBBbbbbbb // 5-5 bits of red+blue
 267:lcdlib/daisy_ILI9341.hpp ****         1111100000011111 // from MASK_RB * 1
 268:lcdlib/daisy_ILI9341.hpp ****   1111100000011111000000 //   to MASK_RB * MAX_ALPHA // 22 bits!
 269:lcdlib/daisy_ILI9341.hpp **** 
 270:lcdlib/daisy_ILI9341.hpp **** 
 271:lcdlib/daisy_ILI9341.hpp ****   -----GGGGGGgggggg----- // 6 bits of green
 272:lcdlib/daisy_ILI9341.hpp ****         0000011111100000 // from MASK_G * 1
 273:lcdlib/daisy_ILI9341.hpp ****   0000011111100000000000 //   to MASK_G * MAX_ALPHA
 274:lcdlib/daisy_ILI9341.hpp **** */
 275:lcdlib/daisy_ILI9341.hpp **** 
 276:lcdlib/daisy_ILI9341.hpp **** 
 277:lcdlib/daisy_ILI9341.hpp ****     void InitPalette()
 278:lcdlib/daisy_ILI9341.hpp ****     {
 279:lcdlib/daisy_ILI9341.hpp ****         // HEX to RBG565 converter: https://trolsoft.ru/en/articles/rgb565-color-picker
 280:lcdlib/daisy_ILI9341.hpp ****         tftPalette[COLOR_BLACK]       = 0x0000;
 281:lcdlib/daisy_ILI9341.hpp ****         tftPalette[COLOR_WHITE]       = 0xffff;
 282:lcdlib/daisy_ILI9341.hpp ****         tftPalette[COLOR_BLUE]        = 0x5AFF;
 283:lcdlib/daisy_ILI9341.hpp ****         tftPalette[COLOR_DARK_BLUE]   = 0x18EB;
 284:lcdlib/daisy_ILI9341.hpp ****         tftPalette[COLOR_YELLOW]      = 0xFFE0;
 285:lcdlib/daisy_ILI9341.hpp ****         tftPalette[COLOR_DARK_YELLOW] = 0x49E1;
 286:lcdlib/daisy_ILI9341.hpp ****         tftPalette[COLOR_RED]         = 0xF9E1; // 0xff4010
 287:lcdlib/daisy_ILI9341.hpp ****         tftPalette[COLOR_DARK_RED]    = 0x4880; // 0x401000
 288:lcdlib/daisy_ILI9341.hpp ****         tftPalette[COLOR_GREEN]       = 0x3FE7; // 0x40ff40
 289:lcdlib/daisy_ILI9341.hpp ****         tftPalette[COLOR_DARK_GREEN]  = 0x01E0; // 0x004000
 290:lcdlib/daisy_ILI9341.hpp ****         tftPalette[COLOR_LIGHT_GRAY]  = 0xAD75; // 0xb0b0b0
 291:lcdlib/daisy_ILI9341.hpp ****         tftPalette[COLOR_MEDIUM_GRAY] = 0x8C71; // 0x909090
 292:lcdlib/daisy_ILI9341.hpp ****         tftPalette[COLOR_GRAY]        = 0x5AEB; // 0x606060
 293:lcdlib/daisy_ILI9341.hpp ****         tftPalette[COLOR_DARK_GRAY]   = 0x2965; // 0x303030
 294:lcdlib/daisy_ILI9341.hpp ****         tftPalette[COLOR_CYAN]        = 0x76FD; // 0x76dfef
 295:lcdlib/daisy_ILI9341.hpp ****         tftPalette[COLOR_ORANGE]      = 0xFBE0; // 0xff7f00
 296:lcdlib/daisy_ILI9341.hpp ****         tftPalette[COLOR_LIGHT_GREEN] = 0x6FED; // 0x70ff70
 297:lcdlib/daisy_ILI9341.hpp ****         // tftPalette[COLOR_ABL_BG]      = (0x2104); // 0x212121
 298:lcdlib/daisy_ILI9341.hpp ****         tftPalette[COLOR_ABL_BG]     = 0x4A69; // #4D4D4D
 299:lcdlib/daisy_ILI9341.hpp ****         tftPalette[COLOR_ABL_LINE]   = 0x39E7; // 0x3d3d3d
 300:lcdlib/daisy_ILI9341.hpp ****         tftPalette[COLOR_ABL_D_LINE] = 0x31A6; // 0x363636
ARM GAS  /var/folders/cl/k1vt3d7567s5t107m3sv9whr0000gn/T//cclnrocj.s 			page 17


 301:lcdlib/daisy_ILI9341.hpp ****         tftPalette[COLOR_ABL_L_GRAY] = 0x52AA; // 0x555555
 302:lcdlib/daisy_ILI9341.hpp ****         tftPalette[COLOR_ABL_M_GRAY] = 0x4228; // 0x454545
 303:lcdlib/daisy_ILI9341.hpp ****     }
 304:lcdlib/daisy_ILI9341.hpp **** };
 305:lcdlib/daisy_ILI9341.hpp **** 
 306:lcdlib/daisy_ILI9341.hpp **** 
 307:lcdlib/daisy_ILI9341.hpp **** /**
 308:lcdlib/daisy_ILI9341.hpp ****  * A driver implementation for the ILI9341
 309:lcdlib/daisy_ILI9341.hpp ****  */
 310:lcdlib/daisy_ILI9341.hpp **** // class ILI9341Driver
 311:lcdlib/daisy_ILI9341.hpp **** class UiDriver
 312:lcdlib/daisy_ILI9341.hpp **** {
 313:lcdlib/daisy_ILI9341.hpp ****   public:
 314:lcdlib/daisy_ILI9341.hpp ****     enum class Orientation
 315:lcdlib/daisy_ILI9341.hpp ****     {
 316:lcdlib/daisy_ILI9341.hpp ****         Default = 0,
 317:lcdlib/daisy_ILI9341.hpp ****         RRight,
 318:lcdlib/daisy_ILI9341.hpp ****         RLeft,
 319:lcdlib/daisy_ILI9341.hpp ****         UpsideDown,
 320:lcdlib/daisy_ILI9341.hpp ****     };
 321:lcdlib/daisy_ILI9341.hpp **** 
 322:lcdlib/daisy_ILI9341.hpp ****     void Init()
 323:lcdlib/daisy_ILI9341.hpp ****     {
 324:lcdlib/daisy_ILI9341.hpp ****         screen_update_period_ = 17; // 17 is roughly 60Hz
 325:lcdlib/daisy_ILI9341.hpp ****         screen_update_last_   = System::GetNow();
 326:lcdlib/daisy_ILI9341.hpp **** 
 327:lcdlib/daisy_ILI9341.hpp ****         InitDriver();
 328:lcdlib/daisy_ILI9341.hpp ****     }
 329:lcdlib/daisy_ILI9341.hpp **** 
 330:lcdlib/daisy_ILI9341.hpp ****     void InitDriver()
 258              		.loc 6 330 10 is_stmt 1 view -0
 259              		.cfi_startproc
 260              		@ args = 0, pretend = 0, frame = 40
 261              		@ frame_needed = 0, uses_anonymous_args = 0
 331:lcdlib/daisy_ILI9341.hpp ****     {
 332:lcdlib/daisy_ILI9341.hpp ****         transport_.Init();
 262              		.loc 6 332 9 view .LVU48
 330:lcdlib/daisy_ILI9341.hpp ****     {
 263              		.loc 6 330 10 is_stmt 0 view .LVU49
 264 0000 2DE9F04F 		push	{r4, r5, r6, r7, r8, r9, r10, fp, lr}
 265              		.cfi_def_cfa_offset 36
 266              		.cfi_offset 4, -36
 267              		.cfi_offset 5, -32
 268              		.cfi_offset 6, -28
 269              		.cfi_offset 7, -24
 270              		.cfi_offset 8, -20
 271              		.cfi_offset 9, -16
 272              		.cfi_offset 10, -12
 273              		.cfi_offset 11, -8
 274              		.cfi_offset 14, -4
 275              	.LBB336:
 276              	.LBB337:
 277              	.LBB338:
 278              	.LBB339:
 279              	.LBB340:
 280              		.file 7 "../../libDaisy//src/per/spi.h"
   1:../../libDaisy//src/per/spi.h **** #pragma once
ARM GAS  /var/folders/cl/k1vt3d7567s5t107m3sv9whr0000gn/T//cclnrocj.s 			page 18


   2:../../libDaisy//src/per/spi.h **** #ifndef DSY_SPI_H
   3:../../libDaisy//src/per/spi.h **** #define DSY_SPI_H
   4:../../libDaisy//src/per/spi.h **** 
   5:../../libDaisy//src/per/spi.h **** #include "daisy_core.h"
   6:../../libDaisy//src/per/spi.h **** 
   7:../../libDaisy//src/per/spi.h **** /* TODO:
   8:../../libDaisy//src/per/spi.h **** - Add documentation
   9:../../libDaisy//src/per/spi.h **** - Add IT
  10:../../libDaisy//src/per/spi.h **** */
  11:../../libDaisy//src/per/spi.h **** 
  12:../../libDaisy//src/per/spi.h **** namespace daisy
  13:../../libDaisy//src/per/spi.h **** {
  14:../../libDaisy//src/per/spi.h **** /** @addtogroup serial
  15:../../libDaisy//src/per/spi.h **** @{
  16:../../libDaisy//src/per/spi.h **** */
  17:../../libDaisy//src/per/spi.h **** 
  18:../../libDaisy//src/per/spi.h **** /**  Handler for serial peripheral interface */
  19:../../libDaisy//src/per/spi.h **** class SpiHandle
  20:../../libDaisy//src/per/spi.h **** {
  21:../../libDaisy//src/per/spi.h ****   public:
  22:../../libDaisy//src/per/spi.h ****     struct Config
  23:../../libDaisy//src/per/spi.h ****     {
  24:../../libDaisy//src/per/spi.h ****         enum class Peripheral
  25:../../libDaisy//src/per/spi.h ****         {
  26:../../libDaisy//src/per/spi.h ****             SPI_1,
  27:../../libDaisy//src/per/spi.h ****             SPI_2,
  28:../../libDaisy//src/per/spi.h ****             SPI_3,
  29:../../libDaisy//src/per/spi.h ****             SPI_4,
  30:../../libDaisy//src/per/spi.h ****             SPI_5,
  31:../../libDaisy//src/per/spi.h ****             SPI_6,
  32:../../libDaisy//src/per/spi.h ****         };
  33:../../libDaisy//src/per/spi.h **** 
  34:../../libDaisy//src/per/spi.h ****         enum class Mode
  35:../../libDaisy//src/per/spi.h ****         {
  36:../../libDaisy//src/per/spi.h ****             MASTER,
  37:../../libDaisy//src/per/spi.h ****             SLAVE,
  38:../../libDaisy//src/per/spi.h ****         };
  39:../../libDaisy//src/per/spi.h **** 
  40:../../libDaisy//src/per/spi.h ****         enum class Direction
  41:../../libDaisy//src/per/spi.h ****         {
  42:../../libDaisy//src/per/spi.h ****             TWO_LINES,
  43:../../libDaisy//src/per/spi.h ****             TWO_LINES_TX_ONLY,
  44:../../libDaisy//src/per/spi.h ****             TWO_LINES_RX_ONLY,
  45:../../libDaisy//src/per/spi.h ****             ONE_LINE,
  46:../../libDaisy//src/per/spi.h ****         };
  47:../../libDaisy//src/per/spi.h **** 
  48:../../libDaisy//src/per/spi.h ****         enum class ClockPolarity
  49:../../libDaisy//src/per/spi.h ****         {
  50:../../libDaisy//src/per/spi.h ****             LOW,
  51:../../libDaisy//src/per/spi.h ****             HIGH,
  52:../../libDaisy//src/per/spi.h ****         };
  53:../../libDaisy//src/per/spi.h **** 
  54:../../libDaisy//src/per/spi.h ****         enum class ClockPhase
  55:../../libDaisy//src/per/spi.h ****         {
  56:../../libDaisy//src/per/spi.h ****             ONE_EDGE,
  57:../../libDaisy//src/per/spi.h ****             TWO_EDGE,
  58:../../libDaisy//src/per/spi.h ****         };
ARM GAS  /var/folders/cl/k1vt3d7567s5t107m3sv9whr0000gn/T//cclnrocj.s 			page 19


  59:../../libDaisy//src/per/spi.h **** 
  60:../../libDaisy//src/per/spi.h ****         enum class NSS
  61:../../libDaisy//src/per/spi.h ****         {
  62:../../libDaisy//src/per/spi.h ****             SOFT,
  63:../../libDaisy//src/per/spi.h ****             HARD_INPUT,
  64:../../libDaisy//src/per/spi.h ****             HARD_OUTPUT,
  65:../../libDaisy//src/per/spi.h ****         };
  66:../../libDaisy//src/per/spi.h **** 
  67:../../libDaisy//src/per/spi.h ****         enum class BaudPrescaler
  68:../../libDaisy//src/per/spi.h ****         {
  69:../../libDaisy//src/per/spi.h ****             PS_2,
  70:../../libDaisy//src/per/spi.h ****             PS_4,
  71:../../libDaisy//src/per/spi.h ****             PS_8,
  72:../../libDaisy//src/per/spi.h ****             PS_16,
  73:../../libDaisy//src/per/spi.h ****             PS_32,
  74:../../libDaisy//src/per/spi.h ****             PS_64,
  75:../../libDaisy//src/per/spi.h ****             PS_128,
  76:../../libDaisy//src/per/spi.h ****             PS_256,
  77:../../libDaisy//src/per/spi.h ****         };
  78:../../libDaisy//src/per/spi.h **** 
  79:../../libDaisy//src/per/spi.h ****         struct
  80:../../libDaisy//src/per/spi.h ****         {
  81:../../libDaisy//src/per/spi.h ****             dsy_gpio_pin sclk; /**< & */
  82:../../libDaisy//src/per/spi.h ****             dsy_gpio_pin miso; /**< & */
  83:../../libDaisy//src/per/spi.h ****             dsy_gpio_pin mosi; /**< & */
  84:../../libDaisy//src/per/spi.h ****             dsy_gpio_pin nss;  /**< & */
  85:../../libDaisy//src/per/spi.h ****         } pin_config;
  86:../../libDaisy//src/per/spi.h **** 
  87:../../libDaisy//src/per/spi.h ****         Config()
  88:../../libDaisy//src/per/spi.h ****         {
  89:../../libDaisy//src/per/spi.h ****             // user must specify periph, mode, direction, nss, and pin_config
  90:../../libDaisy//src/per/spi.h ****             datasize       = 8;
 281              		.loc 7 90 28 view .LVU50
 282 0004 0823     		movs	r3, #8
 283              	.LBE340:
 284              	.LBE339:
 285              	.LBE338:
 286              	.LBE337:
 287              	.LBE336:
 330:lcdlib/daisy_ILI9341.hpp ****     {
 288              		.loc 6 330 10 view .LVU51
 289 0006 8BB0     		sub	sp, sp, #44
 290              		.cfi_def_cfa_offset 80
 291              	.LBB364:
 292              	.LBB359:
  67:lcdlib/daisy_ILI9341.hpp ****         spi_config.pin_config.mosi = {DSY_GPIOB, 5};
 293              		.loc 6 67 36 view .LVU52
 294 0008 DFF89094 		ldr	r9, .L15+40
 295              	.LBE359:
 296              	.LBE364:
 330:lcdlib/daisy_ILI9341.hpp ****     {
 297              		.loc 6 330 10 view .LVU53
 298 000c 8046     		mov	r8, r0
 299              	.LBB365:
 300              	.LBB360:
 301              	.LBB349:
 302              	.LBB345:
ARM GAS  /var/folders/cl/k1vt3d7567s5t107m3sv9whr0000gn/T//cclnrocj.s 			page 20


 303              	.LBB341:
 304              		.loc 7 90 28 view .LVU54
 305 000e 0593     		str	r3, [sp, #20]
 306              	.LBE341:
 307              	.LBE345:
 308              	.LBE349:
  61:lcdlib/daisy_ILI9341.hpp ****         spi_config.clock_polarity  = SpiHandle::Config::ClockPolarity::LOW;
 309              		.loc 6 61 30 view .LVU55
 310 0010 0124     		movs	r4, #1
  67:lcdlib/daisy_ILI9341.hpp ****         spi_config.pin_config.mosi = {DSY_GPIOB, 5};
 311              		.loc 6 67 36 view .LVU56
 312 0012 B9F80030 		ldrh	r3, [r9]
  79:lcdlib/daisy_ILI9341.hpp ****         // Reset pin
 313              		.loc 6 79 23 view .LVU57
 314 0016 08F14C06 		add	r6, r8, #76
 315              	.LBB350:
 316              	.LBB346:
 317              	.LBB342:
  91:../../libDaisy//src/per/spi.h ****             clock_polarity = ClockPolarity::LOW;
 318              		.loc 7 91 28 view .LVU58
 319 001a 0027     		movs	r7, #0
 320              	.LBE342:
 321              	.LBE346:
 322              	.LBE350:
  65:lcdlib/daisy_ILI9341.hpp ****         spi_config.datasize        = 8;
 323              		.loc 6 65 36 view .LVU59
 324 001c 4FF0020B 		mov	fp, #2
  67:lcdlib/daisy_ILI9341.hpp ****         spi_config.pin_config.mosi = {DSY_GPIOB, 5};
 325              		.loc 6 67 36 view .LVU60
 326 0020 ADF80030 		strh	r3, [sp]	@ movhi
  83:lcdlib/daisy_ILI9341.hpp ****         // CS pin
 327              		.loc 6 83 23 view .LVU61
 328 0024 08F1480A 		add	r10, r8, #72
  68:lcdlib/daisy_ILI9341.hpp ****         spi_config.pin_config.nss  = {DSY_GPIOG, 10};
 329              		.loc 6 68 36 view .LVU62
 330 0028 B9F80430 		ldrh	r3, [r9, #4]
  89:lcdlib/daisy_ILI9341.hpp **** 
 331              		.loc 6 89 17 view .LVU63
 332 002c 08F11805 		add	r5, r8, #24
  77:lcdlib/daisy_ILI9341.hpp ****         pin_dc_.pin  = DaisySeed::GetPin(dc_pin);
 333              		.loc 6 77 22 view .LVU64
 334 0030 80F84E40 		strb	r4, [r0, #78]
 335              	.LVL14:
  77:lcdlib/daisy_ILI9341.hpp ****         pin_dc_.pin  = DaisySeed::GetPin(dc_pin);
 336              		.loc 6 77 22 view .LVU65
 337              	.LBE360:
 338              	.LBI336:
  55:lcdlib/daisy_ILI9341.hpp ****     {
 339              		.loc 6 55 10 is_stmt 1 view .LVU66
 340              	.LBB361:
  58:lcdlib/daisy_ILI9341.hpp ****         spi_config.periph    = SpiHandle::Config::Peripheral::SPI_1;
 341              		.loc 6 58 9 view .LVU67
 342              	.LBB351:
 343              	.LBI338:
  87:../../libDaisy//src/per/spi.h ****         {
 344              		.loc 7 87 9 view .LVU68
 345              	.LBB347:
ARM GAS  /var/folders/cl/k1vt3d7567s5t107m3sv9whr0000gn/T//cclnrocj.s 			page 21


 346              	.LBB343:
  90:../../libDaisy//src/per/spi.h ****             clock_polarity = ClockPolarity::LOW;
 347              		.loc 7 90 13 view .LVU69
 348              		.loc 7 91 13 view .LVU70
 349              	.LBE343:
 350              	.LBE347:
 351              	.LBE351:
  78:lcdlib/daisy_ILI9341.hpp ****         dsy_gpio_init(&pin_dc_);
 352              		.loc 6 78 48 is_stmt 0 view .LVU71
 353 0034 1020     		movs	r0, #16
 354              	.LVL15:
  68:lcdlib/daisy_ILI9341.hpp ****         spi_config.pin_config.nss  = {DSY_GPIOG, 10};
 355              		.loc 6 68 36 view .LVU72
 356 0036 ADF80430 		strh	r3, [sp, #4]	@ movhi
  69:lcdlib/daisy_ILI9341.hpp ****         spi_config.pin_config.miso = {DSY_GPIOX, 0}; // not used
 357              		.loc 6 69 36 view .LVU73
 358 003a B9F80830 		ldrh	r3, [r9, #8]
  61:lcdlib/daisy_ILI9341.hpp ****         spi_config.clock_polarity  = SpiHandle::Config::ClockPolarity::LOW;
 359              		.loc 6 61 30 view .LVU74
 360 003e 0494     		str	r4, [sp, #16]
  69:lcdlib/daisy_ILI9341.hpp ****         spi_config.pin_config.miso = {DSY_GPIOX, 0}; // not used
 361              		.loc 6 69 36 view .LVU75
 362 0040 ADF80630 		strh	r3, [sp, #6]	@ movhi
  70:lcdlib/daisy_ILI9341.hpp **** 
 363              		.loc 6 70 36 view .LVU76
 364 0044 0B23     		movs	r3, #11
 365              	.LBB352:
 366              	.LBB348:
 367              	.LBB344:
  92:../../libDaisy//src/per/spi.h ****             clock_phase    = ClockPhase::ONE_EDGE;
 368              		.loc 7 92 28 view .LVU77
 369 0046 CDE90677 		strd	r7, r7, [sp, #24]
  93:../../libDaisy//src/per/spi.h ****             baud_prescaler = BaudPrescaler::PS_8;
 370              		.loc 7 93 13 is_stmt 1 view .LVU78
 371              	.LVL16:
 372              		.loc 7 93 13 is_stmt 0 view .LVU79
 373              	.LBE344:
 374              	.LBE348:
 375              	.LBE352:
  59:lcdlib/daisy_ILI9341.hpp ****         spi_config.mode      = SpiHandle::Config::Mode::MASTER;
 376              		.loc 6 59 9 is_stmt 1 view .LVU80
  70:lcdlib/daisy_ILI9341.hpp **** 
 377              		.loc 6 70 36 is_stmt 0 view .LVU81
 378 004a ADF80230 		strh	r3, [sp, #2]	@ movhi
  60:lcdlib/daisy_ILI9341.hpp ****         spi_config.direction = SpiHandle::Config::Direction::TWO_LINES_TX_ONLY;
 379              		.loc 6 60 30 view .LVU82
 380 004e CDE90277 		strd	r7, r7, [sp, #8]
  61:lcdlib/daisy_ILI9341.hpp ****         spi_config.clock_polarity  = SpiHandle::Config::ClockPolarity::LOW;
 381              		.loc 6 61 9 is_stmt 1 view .LVU83
  62:lcdlib/daisy_ILI9341.hpp ****         spi_config.baud_prescaler  = SpiHandle::Config::BaudPrescaler::PS_2;
 382              		.loc 6 62 9 view .LVU84
  63:lcdlib/daisy_ILI9341.hpp ****         spi_config.clock_phase     = SpiHandle::Config::ClockPhase::ONE_EDGE;
 383              		.loc 6 63 9 view .LVU85
  65:lcdlib/daisy_ILI9341.hpp ****         spi_config.datasize        = 8;
 384              		.loc 6 65 36 is_stmt 0 view .LVU86
 385 0052 CDE908B7 		strd	fp, r7, [sp, #32]
  66:lcdlib/daisy_ILI9341.hpp ****         spi_config.pin_config.sclk = {DSY_GPIOG, 11};
ARM GAS  /var/folders/cl/k1vt3d7567s5t107m3sv9whr0000gn/T//cclnrocj.s 			page 22


 386              		.loc 6 66 9 is_stmt 1 view .LVU87
  67:lcdlib/daisy_ILI9341.hpp ****         spi_config.pin_config.mosi = {DSY_GPIOB, 5};
 387              		.loc 6 67 9 view .LVU88
  68:lcdlib/daisy_ILI9341.hpp ****         spi_config.pin_config.nss  = {DSY_GPIOG, 10};
 388              		.loc 6 68 9 view .LVU89
  69:lcdlib/daisy_ILI9341.hpp ****         spi_config.pin_config.miso = {DSY_GPIOX, 0}; // not used
 389              		.loc 6 69 9 view .LVU90
  70:lcdlib/daisy_ILI9341.hpp **** 
 390              		.loc 6 70 9 view .LVU91
  73:lcdlib/daisy_ILI9341.hpp ****         uint8_t reset_pin = 22;
 391              		.loc 6 73 9 view .LVU92
 392              	.LVL17:
  74:lcdlib/daisy_ILI9341.hpp **** 
 393              		.loc 6 74 9 view .LVU93
  77:lcdlib/daisy_ILI9341.hpp ****         pin_dc_.pin  = DaisySeed::GetPin(dc_pin);
 394              		.loc 6 77 9 view .LVU94
  78:lcdlib/daisy_ILI9341.hpp ****         dsy_gpio_init(&pin_dc_);
 395              		.loc 6 78 9 view .LVU95
  78:lcdlib/daisy_ILI9341.hpp ****         dsy_gpio_init(&pin_dc_);
 396              		.loc 6 78 48 is_stmt 0 view .LVU96
 397 0056 FFF7FEFF 		bl	_ZN5daisy9DaisySeed6GetPinEh
 398              	.LVL18:
 399 005a A8F84C00 		strh	r0, [r8, #76]	@ movhi
  79:lcdlib/daisy_ILI9341.hpp ****         // Reset pin
 400              		.loc 6 79 9 is_stmt 1 view .LVU97
  79:lcdlib/daisy_ILI9341.hpp ****         // Reset pin
 401              		.loc 6 79 22 is_stmt 0 view .LVU98
 402 005e 3046     		mov	r0, r6
 403 0060 FFF7FEFF 		bl	dsy_gpio_init
 404              	.LVL19:
  81:lcdlib/daisy_ILI9341.hpp ****         pin_reset_.pin  = DaisySeed::GetPin(reset_pin);
 405              		.loc 6 81 9 is_stmt 1 view .LVU99
  81:lcdlib/daisy_ILI9341.hpp ****         pin_reset_.pin  = DaisySeed::GetPin(reset_pin);
 406              		.loc 6 81 25 is_stmt 0 view .LVU100
 407 0064 88F84A40 		strb	r4, [r8, #74]
  82:lcdlib/daisy_ILI9341.hpp ****         dsy_gpio_init(&pin_reset_);
 408              		.loc 6 82 9 is_stmt 1 view .LVU101
  82:lcdlib/daisy_ILI9341.hpp ****         dsy_gpio_init(&pin_reset_);
 409              		.loc 6 82 54 is_stmt 0 view .LVU102
 410 0068 1620     		movs	r0, #22
 411 006a FFF7FEFF 		bl	_ZN5daisy9DaisySeed6GetPinEh
 412              	.LVL20:
 413 006e A8F84800 		strh	r0, [r8, #72]	@ movhi
  83:lcdlib/daisy_ILI9341.hpp ****         // CS pin
 414              		.loc 6 83 9 is_stmt 1 view .LVU103
  83:lcdlib/daisy_ILI9341.hpp ****         // CS pin
 415              		.loc 6 83 22 is_stmt 0 view .LVU104
 416 0072 5046     		mov	r0, r10
 417 0074 FFF7FEFF 		bl	dsy_gpio_init
 418              	.LVL21:
  85:lcdlib/daisy_ILI9341.hpp ****         pin_cs_.pin  = spi_config.pin_config.nss;
 419              		.loc 6 85 9 is_stmt 1 view .LVU105
  86:lcdlib/daisy_ILI9341.hpp ****         dsy_gpio_init(&pin_cs_);
 420              		.loc 6 86 22 is_stmt 0 view .LVU106
 421 0078 BDF80620 		ldrh	r2, [sp, #6]
 422 007c 4046     		mov	r0, r8
  85:lcdlib/daisy_ILI9341.hpp ****         pin_cs_.pin  = spi_config.pin_config.nss;
ARM GAS  /var/folders/cl/k1vt3d7567s5t107m3sv9whr0000gn/T//cclnrocj.s 			page 23


 423              		.loc 6 85 22 view .LVU107
 424 007e 88F85240 		strb	r4, [r8, #82]
  86:lcdlib/daisy_ILI9341.hpp ****         dsy_gpio_init(&pin_cs_);
 425              		.loc 6 86 9 is_stmt 1 view .LVU108
  86:lcdlib/daisy_ILI9341.hpp ****         dsy_gpio_init(&pin_cs_);
 426              		.loc 6 86 22 is_stmt 0 view .LVU109
 427 0082 20F8502F 		strh	r2, [r0, #80]!	@ movhi
  87:lcdlib/daisy_ILI9341.hpp **** 
 428              		.loc 6 87 9 is_stmt 1 view .LVU110
  87:lcdlib/daisy_ILI9341.hpp **** 
 429              		.loc 6 87 22 is_stmt 0 view .LVU111
 430 0086 FFF7FEFF 		bl	dsy_gpio_init
 431              	.LVL22:
  89:lcdlib/daisy_ILI9341.hpp **** 
 432              		.loc 6 89 8 is_stmt 1 view .LVU112
  89:lcdlib/daisy_ILI9341.hpp **** 
 433              		.loc 6 89 17 is_stmt 0 view .LVU113
 434 008a 6946     		mov	r1, sp
 435 008c 2846     		mov	r0, r5
 436 008e FFF7FEFF 		bl	_ZN5daisy9SpiHandle4InitERKNS0_6ConfigE
 437              	.LVL23:
  91:lcdlib/daisy_ILI9341.hpp ****     };
 438              		.loc 6 91 8 is_stmt 1 view .LVU114
 439              	.LBB353:
 440              	.LBI353:
 277:lcdlib/daisy_ILI9341.hpp ****     {
 441              		.loc 6 277 10 view .LVU115
 442              	.LBB354:
 280:lcdlib/daisy_ILI9341.hpp ****         tftPalette[COLOR_WHITE]       = 0xffff;
 443              		.loc 6 280 9 view .LVU116
 281:lcdlib/daisy_ILI9341.hpp ****         tftPalette[COLOR_BLUE]        = 0x5AFF;
 444              		.loc 6 281 9 view .LVU117
 282:lcdlib/daisy_ILI9341.hpp ****         tftPalette[COLOR_DARK_BLUE]   = 0x18EB;
 445              		.loc 6 282 9 view .LVU118
 283:lcdlib/daisy_ILI9341.hpp ****         tftPalette[COLOR_YELLOW]      = 0xFFE0;
 446              		.loc 6 283 9 view .LVU119
 284:lcdlib/daisy_ILI9341.hpp ****         tftPalette[COLOR_DARK_YELLOW] = 0x49E1;
 447              		.loc 6 284 9 view .LVU120
 285:lcdlib/daisy_ILI9341.hpp ****         tftPalette[COLOR_RED]         = 0xF9E1; // 0xff4010
 448              		.loc 6 285 9 view .LVU121
 286:lcdlib/daisy_ILI9341.hpp ****         tftPalette[COLOR_DARK_RED]    = 0x4880; // 0x401000
 449              		.loc 6 286 9 view .LVU122
 287:lcdlib/daisy_ILI9341.hpp ****         tftPalette[COLOR_GREEN]       = 0x3FE7; // 0x40ff40
 450              		.loc 6 287 9 view .LVU123
 288:lcdlib/daisy_ILI9341.hpp ****         tftPalette[COLOR_DARK_GREEN]  = 0x01E0; // 0x004000
 451              		.loc 6 288 9 view .LVU124
 289:lcdlib/daisy_ILI9341.hpp ****         tftPalette[COLOR_LIGHT_GRAY]  = 0xAD75; // 0xb0b0b0
 452              		.loc 6 289 9 view .LVU125
 290:lcdlib/daisy_ILI9341.hpp ****         tftPalette[COLOR_MEDIUM_GRAY] = 0x8C71; // 0x909090
 453              		.loc 6 290 9 view .LVU126
 291:lcdlib/daisy_ILI9341.hpp ****         tftPalette[COLOR_GRAY]        = 0x5AEB; // 0x606060
 454              		.loc 6 291 9 view .LVU127
 292:lcdlib/daisy_ILI9341.hpp ****         tftPalette[COLOR_DARK_GRAY]   = 0x2965; // 0x303030
 455              		.loc 6 292 9 view .LVU128
 293:lcdlib/daisy_ILI9341.hpp ****         tftPalette[COLOR_CYAN]        = 0x76FD; // 0x76dfef
 456              		.loc 6 293 9 view .LVU129
 294:lcdlib/daisy_ILI9341.hpp ****         tftPalette[COLOR_ORANGE]      = 0xFBE0; // 0xff7f00
ARM GAS  /var/folders/cl/k1vt3d7567s5t107m3sv9whr0000gn/T//cclnrocj.s 			page 24


 457              		.loc 6 294 9 view .LVU130
 295:lcdlib/daisy_ILI9341.hpp ****         tftPalette[COLOR_LIGHT_GREEN] = 0x6FED; // 0x70ff70
 458              		.loc 6 295 9 view .LVU131
 296:lcdlib/daisy_ILI9341.hpp ****         // tftPalette[COLOR_ABL_BG]      = (0x2104); // 0x212121
 459              		.loc 6 296 9 view .LVU132
 298:lcdlib/daisy_ILI9341.hpp ****         tftPalette[COLOR_ABL_LINE]   = 0x39E7; // 0x3d3d3d
 460              		.loc 6 298 9 view .LVU133
 299:lcdlib/daisy_ILI9341.hpp ****         tftPalette[COLOR_ABL_D_LINE] = 0x31A6; // 0x363636
 461              		.loc 6 299 9 view .LVU134
 300:lcdlib/daisy_ILI9341.hpp ****         tftPalette[COLOR_ABL_L_GRAY] = 0x52AA; // 0x555555
 462              		.loc 6 300 9 view .LVU135
 301:lcdlib/daisy_ILI9341.hpp ****         tftPalette[COLOR_ABL_M_GRAY] = 0x4228; // 0x454545
 463              		.loc 6 301 9 view .LVU136
 302:lcdlib/daisy_ILI9341.hpp ****     }
 464              		.loc 6 302 9 view .LVU137
 282:lcdlib/daisy_ILI9341.hpp ****         tftPalette[COLOR_DARK_BLUE]   = 0x18EB;
 465              		.loc 6 282 39 is_stmt 0 view .LVU138
 466 0092 F84B     		ldr	r3, .L15
 467 0094 F84A     		ldr	r2, .L15+4
 285:lcdlib/daisy_ILI9341.hpp ****         tftPalette[COLOR_RED]         = 0xF9E1; // 0xff4010
 468              		.loc 6 285 39 view .LVU139
 469 0096 F949     		ldr	r1, .L15+8
 288:lcdlib/daisy_ILI9341.hpp ****         tftPalette[COLOR_DARK_GREEN]  = 0x01E0; // 0x004000
 470              		.loc 6 288 39 view .LVU140
 471 0098 F948     		ldr	r0, .L15+12
 291:lcdlib/daisy_ILI9341.hpp ****         tftPalette[COLOR_GRAY]        = 0x5AEB; // 0x606060
 472              		.loc 6 291 39 view .LVU141
 473 009a DFF804C4 		ldr	ip, .L15+44
 282:lcdlib/daisy_ILI9341.hpp ****         tftPalette[COLOR_DARK_BLUE]   = 0x18EB;
 474              		.loc 6 282 39 view .LVU142
 475 009e C8E90732 		strd	r3, r2, [r8, #28]
 285:lcdlib/daisy_ILI9341.hpp ****         tftPalette[COLOR_RED]         = 0xF9E1; // 0xff4010
 476              		.loc 6 285 39 view .LVU143
 477 00a2 F84A     		ldr	r2, .L15+16
 478 00a4 C8E90912 		strd	r1, r2, [r8, #36]
 288:lcdlib/daisy_ILI9341.hpp ****         tftPalette[COLOR_DARK_GREEN]  = 0x01E0; // 0x004000
 479              		.loc 6 288 39 view .LVU144
 480 00a8 F74A     		ldr	r2, .L15+20
 481              	.LBE354:
 482              	.LBE353:
 483              	.LBE361:
 484              	.LBE365:
 485              	.LBB366:
 486              	.LBB367:
  96:lcdlib/daisy_ILI9341.hpp ****         System::Delay(100);
 487              		.loc 6 96 23 view .LVU145
 488 00aa 3946     		mov	r1, r7
 489              	.LBE367:
 490              	.LBE366:
 491              	.LBB370:
 492              	.LBB362:
 493              	.LBB357:
 494              	.LBB355:
 288:lcdlib/daisy_ILI9341.hpp ****         tftPalette[COLOR_DARK_GREEN]  = 0x01E0; // 0x004000
 495              		.loc 6 288 39 view .LVU146
 496 00ac C8E90B02 		strd	r0, r2, [r8, #44]
 296:lcdlib/daisy_ILI9341.hpp ****         // tftPalette[COLOR_ABL_BG]      = (0x2104); // 0x212121
ARM GAS  /var/folders/cl/k1vt3d7567s5t107m3sv9whr0000gn/T//cclnrocj.s 			page 25


 497              		.loc 6 296 39 view .LVU147
 498 00b0 02F1B242 		add	r2, r2, #1493172224
 499              	.LBE355:
 500              	.LBE357:
 501              	.LBE362:
 502              	.LBE370:
 503              	.LBB371:
 504              	.LBB368:
  96:lcdlib/daisy_ILI9341.hpp ****         System::Delay(100);
 505              		.loc 6 96 23 view .LVU148
 506 00b4 5046     		mov	r0, r10
 507              	.LBE368:
 508              	.LBE371:
 509              	.LBB372:
 510              	.LBB363:
 511              	.LBB358:
 512              	.LBB356:
 296:lcdlib/daisy_ILI9341.hpp ****         // tftPalette[COLOR_ABL_BG]      = (0x2104); // 0x212121
 513              		.loc 6 296 39 view .LVU149
 514 00b6 02F53322 		add	r2, r2, #733184
 515 00ba 0632     		adds	r2, r2, #6
 516 00bc C8F83420 		str	r2, [r8, #52]
 291:lcdlib/daisy_ILI9341.hpp ****         tftPalette[COLOR_GRAY]        = 0x5AEB; // 0x606060
 517              		.loc 6 291 39 view .LVU150
 518 00c0 F24A     		ldr	r2, .L15+24
 519 00c2 C8E90EC2 		strd	ip, r2, [r8, #56]
 299:lcdlib/daisy_ILI9341.hpp ****         tftPalette[COLOR_ABL_D_LINE] = 0x31A6; // 0x363636
 520              		.loc 6 299 38 view .LVU151
 521 00c6 A2F1C652 		sub	r2, r2, #415236096
 522 00ca A2F55432 		sub	r2, r2, #217088
 523 00ce A2F28A22 		subw	r2, r2, #650
 524 00d2 C8F84020 		str	r2, [r8, #64]
 301:lcdlib/daisy_ILI9341.hpp ****         tftPalette[COLOR_ABL_M_GRAY] = 0x4228; // 0x454545
 525              		.loc 6 301 38 view .LVU152
 526 00d6 02F18452 		add	r2, r2, #276824064
 527 00da 02F50632 		add	r2, r2, #137216
 528 00de C332     		adds	r2, r2, #195
 529 00e0 C8F84420 		str	r2, [r8, #68]
 530              	.LVL24:
 301:lcdlib/daisy_ILI9341.hpp ****         tftPalette[COLOR_ABL_M_GRAY] = 0x4228; // 0x454545
 531              		.loc 6 301 38 view .LVU153
 532              	.LBE356:
 533              	.LBE358:
 534              	.LBE363:
 535              	.LBE372:
 333:lcdlib/daisy_ILI9341.hpp **** 
 334:lcdlib/daisy_ILI9341.hpp ****         SetOrientation(Orientation::RLeft);
 536              		.loc 6 334 9 is_stmt 1 view .LVU154
 537              	.LBB373:
 538              	.LBI373:
 335:lcdlib/daisy_ILI9341.hpp **** 
 336:lcdlib/daisy_ILI9341.hpp ****         transport_.Reset();
 337:lcdlib/daisy_ILI9341.hpp **** 
 338:lcdlib/daisy_ILI9341.hpp ****         //Software Reset
 339:lcdlib/daisy_ILI9341.hpp ****         transport_.SendCommand(0x01);
 340:lcdlib/daisy_ILI9341.hpp ****         System::Delay(100); // TODO: maybe less?
 341:lcdlib/daisy_ILI9341.hpp **** 
ARM GAS  /var/folders/cl/k1vt3d7567s5t107m3sv9whr0000gn/T//cclnrocj.s 			page 26


 342:lcdlib/daisy_ILI9341.hpp ****         // command list is based on https://github.com/martnak/STM32-ILI9341
 343:lcdlib/daisy_ILI9341.hpp **** 
 344:lcdlib/daisy_ILI9341.hpp ****         // POWER CONTROL A
 345:lcdlib/daisy_ILI9341.hpp ****         transport_.SendCommand(0xCB);
 346:lcdlib/daisy_ILI9341.hpp ****         {
 347:lcdlib/daisy_ILI9341.hpp ****             uint8_t data[5] = {0x39, 0x2C, 0x00, 0x34, 0x02};
 348:lcdlib/daisy_ILI9341.hpp ****             transport_.SendData(data, 5);
 349:lcdlib/daisy_ILI9341.hpp ****         }
 350:lcdlib/daisy_ILI9341.hpp **** 
 351:lcdlib/daisy_ILI9341.hpp ****         // POWER CONTROL B
 352:lcdlib/daisy_ILI9341.hpp ****         transport_.SendCommand(0xCF);
 353:lcdlib/daisy_ILI9341.hpp ****         {
 354:lcdlib/daisy_ILI9341.hpp ****             uint8_t data[3] = {0x00, 0xC1, 0x30};
 355:lcdlib/daisy_ILI9341.hpp ****             transport_.SendData(data, 3);
 356:lcdlib/daisy_ILI9341.hpp ****         }
 357:lcdlib/daisy_ILI9341.hpp **** 
 358:lcdlib/daisy_ILI9341.hpp ****         // DRIVER TIMING CONTROL A
 359:lcdlib/daisy_ILI9341.hpp ****         transport_.SendCommand(0xE8);
 360:lcdlib/daisy_ILI9341.hpp ****         {
 361:lcdlib/daisy_ILI9341.hpp ****             uint8_t data[3] = {0x85, 0x00, 0x78};
 362:lcdlib/daisy_ILI9341.hpp ****             transport_.SendData(data, 3);
 363:lcdlib/daisy_ILI9341.hpp ****         }
 364:lcdlib/daisy_ILI9341.hpp **** 
 365:lcdlib/daisy_ILI9341.hpp ****         // DRIVER TIMING CONTROL B
 366:lcdlib/daisy_ILI9341.hpp ****         transport_.SendCommand(0xEA);
 367:lcdlib/daisy_ILI9341.hpp ****         {
 368:lcdlib/daisy_ILI9341.hpp ****             uint8_t data[2] = {0x00, 0x00};
 369:lcdlib/daisy_ILI9341.hpp ****             transport_.SendData(data, 2);
 370:lcdlib/daisy_ILI9341.hpp ****         }
 371:lcdlib/daisy_ILI9341.hpp **** 
 372:lcdlib/daisy_ILI9341.hpp ****         // POWER ON SEQUENCE CONTROL
 373:lcdlib/daisy_ILI9341.hpp ****         transport_.SendCommand(0xED);
 374:lcdlib/daisy_ILI9341.hpp ****         {
 375:lcdlib/daisy_ILI9341.hpp ****             uint8_t data[4] = {0x64, 0x03, 0x12, 0x81};
 376:lcdlib/daisy_ILI9341.hpp ****             transport_.SendData(data, 4);
 377:lcdlib/daisy_ILI9341.hpp ****         }
 378:lcdlib/daisy_ILI9341.hpp **** 
 379:lcdlib/daisy_ILI9341.hpp ****         // PUMP RATIO CONTROL
 380:lcdlib/daisy_ILI9341.hpp ****         transport_.SendCommand(0xF7);
 381:lcdlib/daisy_ILI9341.hpp ****         {
 382:lcdlib/daisy_ILI9341.hpp ****             uint8_t data[1] = {0x20};
 383:lcdlib/daisy_ILI9341.hpp ****             transport_.SendData(data, 1);
 384:lcdlib/daisy_ILI9341.hpp ****         }
 385:lcdlib/daisy_ILI9341.hpp **** 
 386:lcdlib/daisy_ILI9341.hpp ****         // POWER CONTROL,VRH[5:0]
 387:lcdlib/daisy_ILI9341.hpp ****         transport_.SendCommand(0xC0);
 388:lcdlib/daisy_ILI9341.hpp ****         {
 389:lcdlib/daisy_ILI9341.hpp ****             uint8_t data[1] = {0x23};
 390:lcdlib/daisy_ILI9341.hpp ****             transport_.SendData(data, 1);
 391:lcdlib/daisy_ILI9341.hpp ****         }
 392:lcdlib/daisy_ILI9341.hpp **** 
 393:lcdlib/daisy_ILI9341.hpp ****         // POWER CONTROL,SAP[2:0];BT[3:0]
 394:lcdlib/daisy_ILI9341.hpp ****         transport_.SendCommand(0xC1);
 395:lcdlib/daisy_ILI9341.hpp ****         {
 396:lcdlib/daisy_ILI9341.hpp ****             uint8_t data[1] = {0x10};
 397:lcdlib/daisy_ILI9341.hpp ****             transport_.SendData(data, 1);
 398:lcdlib/daisy_ILI9341.hpp ****         }
ARM GAS  /var/folders/cl/k1vt3d7567s5t107m3sv9whr0000gn/T//cclnrocj.s 			page 27


 399:lcdlib/daisy_ILI9341.hpp **** 
 400:lcdlib/daisy_ILI9341.hpp ****         // VCM CONTROL
 401:lcdlib/daisy_ILI9341.hpp ****         transport_.SendCommand(0xC5);
 402:lcdlib/daisy_ILI9341.hpp ****         {
 403:lcdlib/daisy_ILI9341.hpp ****             uint8_t data[2] = {0x3E, 0x28};
 404:lcdlib/daisy_ILI9341.hpp ****             transport_.SendData(data, 2);
 405:lcdlib/daisy_ILI9341.hpp ****         }
 406:lcdlib/daisy_ILI9341.hpp **** 
 407:lcdlib/daisy_ILI9341.hpp ****         // VCM CONTROL 2
 408:lcdlib/daisy_ILI9341.hpp ****         transport_.SendCommand(0xC7);
 409:lcdlib/daisy_ILI9341.hpp ****         {
 410:lcdlib/daisy_ILI9341.hpp ****             uint8_t data[1] = {0x86};
 411:lcdlib/daisy_ILI9341.hpp ****             transport_.SendData(data, 1);
 412:lcdlib/daisy_ILI9341.hpp ****         }
 413:lcdlib/daisy_ILI9341.hpp **** 
 414:lcdlib/daisy_ILI9341.hpp ****         // MEMORY ACCESS CONTROL
 415:lcdlib/daisy_ILI9341.hpp ****         transport_.SendCommand(0x36);
 416:lcdlib/daisy_ILI9341.hpp ****         {
 417:lcdlib/daisy_ILI9341.hpp ****             uint8_t data[1] = {0x48};
 418:lcdlib/daisy_ILI9341.hpp ****             transport_.SendData(data, 1);
 419:lcdlib/daisy_ILI9341.hpp ****         }
 420:lcdlib/daisy_ILI9341.hpp **** 
 421:lcdlib/daisy_ILI9341.hpp ****         // PIXEL FORMAT
 422:lcdlib/daisy_ILI9341.hpp ****         transport_.SendCommand(0x3A);
 423:lcdlib/daisy_ILI9341.hpp ****         {
 424:lcdlib/daisy_ILI9341.hpp ****             uint8_t data[1] = {0x55};
 425:lcdlib/daisy_ILI9341.hpp ****             transport_.SendData(data, 1);
 426:lcdlib/daisy_ILI9341.hpp ****         }
 427:lcdlib/daisy_ILI9341.hpp **** 
 428:lcdlib/daisy_ILI9341.hpp ****         // FRAME RATIO CONTROL, STANDARD RGB COLOR
 429:lcdlib/daisy_ILI9341.hpp ****         transport_.SendCommand(0xB1);
 430:lcdlib/daisy_ILI9341.hpp ****         {
 431:lcdlib/daisy_ILI9341.hpp ****             uint8_t data[2] = {0x00, 0x18};
 432:lcdlib/daisy_ILI9341.hpp ****             transport_.SendData(data, 2);
 433:lcdlib/daisy_ILI9341.hpp ****         }
 434:lcdlib/daisy_ILI9341.hpp **** 
 435:lcdlib/daisy_ILI9341.hpp ****         // DISPLAY FUNCTION CONTROL
 436:lcdlib/daisy_ILI9341.hpp ****         transport_.SendCommand(0xB6);
 437:lcdlib/daisy_ILI9341.hpp ****         {
 438:lcdlib/daisy_ILI9341.hpp ****             uint8_t data[3] = {0x08, 0x82, 0x27};
 439:lcdlib/daisy_ILI9341.hpp ****             transport_.SendData(data, 3);
 440:lcdlib/daisy_ILI9341.hpp ****         }
 441:lcdlib/daisy_ILI9341.hpp **** 
 442:lcdlib/daisy_ILI9341.hpp ****         // 3GAMMA FUNCTION DISABLE
 443:lcdlib/daisy_ILI9341.hpp ****         transport_.SendCommand(0xF2);
 444:lcdlib/daisy_ILI9341.hpp ****         {
 445:lcdlib/daisy_ILI9341.hpp ****             uint8_t data[1] = {0x00};
 446:lcdlib/daisy_ILI9341.hpp ****             transport_.SendData(data, 1);
 447:lcdlib/daisy_ILI9341.hpp ****         }
 448:lcdlib/daisy_ILI9341.hpp **** 
 449:lcdlib/daisy_ILI9341.hpp ****         // GAMMA CURVE SELECTED
 450:lcdlib/daisy_ILI9341.hpp ****         transport_.SendCommand(0x26);
 451:lcdlib/daisy_ILI9341.hpp ****         {
 452:lcdlib/daisy_ILI9341.hpp ****             uint8_t data[1] = {0x01};
 453:lcdlib/daisy_ILI9341.hpp ****             transport_.SendData(data, 1);
 454:lcdlib/daisy_ILI9341.hpp ****         }
 455:lcdlib/daisy_ILI9341.hpp **** 
ARM GAS  /var/folders/cl/k1vt3d7567s5t107m3sv9whr0000gn/T//cclnrocj.s 			page 28


 456:lcdlib/daisy_ILI9341.hpp ****         // POSITIVE GAMMA CORRECTION
 457:lcdlib/daisy_ILI9341.hpp ****         transport_.SendCommand(0xE0);
 458:lcdlib/daisy_ILI9341.hpp ****         {
 459:lcdlib/daisy_ILI9341.hpp ****             uint8_t data[15] = {0x0F,
 460:lcdlib/daisy_ILI9341.hpp ****                                 0x31,
 461:lcdlib/daisy_ILI9341.hpp ****                                 0x2B,
 462:lcdlib/daisy_ILI9341.hpp ****                                 0x0C,
 463:lcdlib/daisy_ILI9341.hpp ****                                 0x0E,
 464:lcdlib/daisy_ILI9341.hpp ****                                 0x08,
 465:lcdlib/daisy_ILI9341.hpp ****                                 0x4E,
 466:lcdlib/daisy_ILI9341.hpp ****                                 0xF1,
 467:lcdlib/daisy_ILI9341.hpp ****                                 0x37,
 468:lcdlib/daisy_ILI9341.hpp ****                                 0x07,
 469:lcdlib/daisy_ILI9341.hpp ****                                 0x10,
 470:lcdlib/daisy_ILI9341.hpp ****                                 0x03,
 471:lcdlib/daisy_ILI9341.hpp ****                                 0x0E,
 472:lcdlib/daisy_ILI9341.hpp ****                                 0x09,
 473:lcdlib/daisy_ILI9341.hpp ****                                 0x00};
 474:lcdlib/daisy_ILI9341.hpp ****             transport_.SendData(data, 15);
 475:lcdlib/daisy_ILI9341.hpp ****         }
 476:lcdlib/daisy_ILI9341.hpp **** 
 477:lcdlib/daisy_ILI9341.hpp ****         // NEGATIVE GAMMA CORRECTION
 478:lcdlib/daisy_ILI9341.hpp ****         transport_.SendCommand(0xE1);
 479:lcdlib/daisy_ILI9341.hpp ****         {
 480:lcdlib/daisy_ILI9341.hpp ****             uint8_t data[15] = {0x00,
 481:lcdlib/daisy_ILI9341.hpp ****                                 0x0E,
 482:lcdlib/daisy_ILI9341.hpp ****                                 0x14,
 483:lcdlib/daisy_ILI9341.hpp ****                                 0x03,
 484:lcdlib/daisy_ILI9341.hpp ****                                 0x11,
 485:lcdlib/daisy_ILI9341.hpp ****                                 0x07,
 486:lcdlib/daisy_ILI9341.hpp ****                                 0x31,
 487:lcdlib/daisy_ILI9341.hpp ****                                 0xC1,
 488:lcdlib/daisy_ILI9341.hpp ****                                 0x48,
 489:lcdlib/daisy_ILI9341.hpp ****                                 0x08,
 490:lcdlib/daisy_ILI9341.hpp ****                                 0x0F,
 491:lcdlib/daisy_ILI9341.hpp ****                                 0x0C,
 492:lcdlib/daisy_ILI9341.hpp ****                                 0x31,
 493:lcdlib/daisy_ILI9341.hpp ****                                 0x36,
 494:lcdlib/daisy_ILI9341.hpp ****                                 0x0F};
 495:lcdlib/daisy_ILI9341.hpp ****             transport_.SendData(data, 15);
 496:lcdlib/daisy_ILI9341.hpp ****         }
 497:lcdlib/daisy_ILI9341.hpp **** 
 498:lcdlib/daisy_ILI9341.hpp ****         // EXIT SLEEP
 499:lcdlib/daisy_ILI9341.hpp ****         transport_.SendCommand(0x11);
 500:lcdlib/daisy_ILI9341.hpp ****         System::Delay(100);
 501:lcdlib/daisy_ILI9341.hpp **** 
 502:lcdlib/daisy_ILI9341.hpp ****         // TURN ON DISPLAY
 503:lcdlib/daisy_ILI9341.hpp ****         transport_.SendCommand(0x29);
 504:lcdlib/daisy_ILI9341.hpp **** 
 505:lcdlib/daisy_ILI9341.hpp ****         // MADCTL
 506:lcdlib/daisy_ILI9341.hpp ****         transport_.SendCommand(0x36);
 507:lcdlib/daisy_ILI9341.hpp ****         System::Delay(10);
 508:lcdlib/daisy_ILI9341.hpp **** 
 509:lcdlib/daisy_ILI9341.hpp ****         {
 510:lcdlib/daisy_ILI9341.hpp ****             uint8_t data[1] = {rotation};
 511:lcdlib/daisy_ILI9341.hpp ****             transport_.SendData(data, 1);
 512:lcdlib/daisy_ILI9341.hpp ****         }
ARM GAS  /var/folders/cl/k1vt3d7567s5t107m3sv9whr0000gn/T//cclnrocj.s 			page 29


 513:lcdlib/daisy_ILI9341.hpp ****     };
 514:lcdlib/daisy_ILI9341.hpp **** 
 515:lcdlib/daisy_ILI9341.hpp ****     void SetOrientation(Orientation ori)
 539              		.loc 6 515 10 view .LVU155
 540              	.LBB374:
 516:lcdlib/daisy_ILI9341.hpp ****     {
 517:lcdlib/daisy_ILI9341.hpp ****         uint8_t ili_bgr = 0x08;
 541              		.loc 6 517 9 view .LVU156
 518:lcdlib/daisy_ILI9341.hpp ****         uint8_t ili_mx  = 0x40;
 542              		.loc 6 518 9 view .LVU157
 519:lcdlib/daisy_ILI9341.hpp ****         uint8_t ili_my  = 0x80;
 543              		.loc 6 519 9 view .LVU158
 520:lcdlib/daisy_ILI9341.hpp ****         uint8_t ili_mv  = 0x20;
 544              		.loc 6 520 9 view .LVU159
 521:lcdlib/daisy_ILI9341.hpp ****         switch(ori)
 545              		.loc 6 521 9 view .LVU160
 522:lcdlib/daisy_ILI9341.hpp ****         {
 523:lcdlib/daisy_ILI9341.hpp ****             case Orientation::RRight:
 524:lcdlib/daisy_ILI9341.hpp ****             {
 525:lcdlib/daisy_ILI9341.hpp ****                 width    = 320;
 526:lcdlib/daisy_ILI9341.hpp ****                 height   = 240;
 527:lcdlib/daisy_ILI9341.hpp ****                 rotation = ili_mx | ili_my | ili_mv | ili_bgr;
 528:lcdlib/daisy_ILI9341.hpp ****                 return;
 529:lcdlib/daisy_ILI9341.hpp ****             }
 530:lcdlib/daisy_ILI9341.hpp ****             case Orientation::RLeft:
 546              		.loc 6 530 13 view .LVU161
 531:lcdlib/daisy_ILI9341.hpp ****             {
 547              		.loc 6 531 13 view .LVU162
 532:lcdlib/daisy_ILI9341.hpp ****                 width    = 320;
 548              		.loc 6 532 17 view .LVU163
 533:lcdlib/daisy_ILI9341.hpp ****                 height   = 240;
 549              		.loc 6 533 17 view .LVU164
 534:lcdlib/daisy_ILI9341.hpp ****                 rotation = ili_mv | ili_bgr;
 550              		.loc 6 534 17 view .LVU165
 532:lcdlib/daisy_ILI9341.hpp ****                 width    = 320;
 551              		.loc 6 532 26 is_stmt 0 view .LVU166
 552 00e4 EA4A     		ldr	r2, .L15+28
 553 00e6 C8F85420 		str	r2, [r8, #84]
 554              		.loc 6 534 26 view .LVU167
 555 00ea 2822     		movs	r2, #40
 556 00ec 88F85820 		strb	r2, [r8, #88]
 535:lcdlib/daisy_ILI9341.hpp ****                 return;
 557              		.loc 6 535 17 is_stmt 1 view .LVU168
 536:lcdlib/daisy_ILI9341.hpp ****             }
 537:lcdlib/daisy_ILI9341.hpp ****             case Orientation::UpsideDown:
 538:lcdlib/daisy_ILI9341.hpp ****             {
 539:lcdlib/daisy_ILI9341.hpp ****                 width    = 240;
 540:lcdlib/daisy_ILI9341.hpp ****                 height   = 320;
 541:lcdlib/daisy_ILI9341.hpp ****                 rotation = ili_my | ili_bgr;
 542:lcdlib/daisy_ILI9341.hpp ****                 return;
 543:lcdlib/daisy_ILI9341.hpp ****             }
 544:lcdlib/daisy_ILI9341.hpp ****             default:
 545:lcdlib/daisy_ILI9341.hpp ****             {
 546:lcdlib/daisy_ILI9341.hpp ****                 width    = 240;
 547:lcdlib/daisy_ILI9341.hpp ****                 height   = 320;
 548:lcdlib/daisy_ILI9341.hpp ****                 rotation = ili_mx | ili_bgr;
 549:lcdlib/daisy_ILI9341.hpp ****             };
ARM GAS  /var/folders/cl/k1vt3d7567s5t107m3sv9whr0000gn/T//cclnrocj.s 			page 30


 558              		.loc 6 549 14 view .LVU169
 559              	.LVL25:
 560              		.loc 6 549 14 is_stmt 0 view .LVU170
 561              	.LBE374:
 562              	.LBE373:
 336:lcdlib/daisy_ILI9341.hpp **** 
 563              		.loc 6 336 9 is_stmt 1 view .LVU171
 564              	.LBB375:
 565              	.LBI366:
  94:lcdlib/daisy_ILI9341.hpp ****     {
 566              		.loc 6 94 10 view .LVU172
 567              	.LBB369:
  96:lcdlib/daisy_ILI9341.hpp ****         System::Delay(100);
 568              		.loc 6 96 9 view .LVU173
  96:lcdlib/daisy_ILI9341.hpp ****         System::Delay(100);
 569              		.loc 6 96 23 is_stmt 0 view .LVU174
 570 00f0 FFF7FEFF 		bl	dsy_gpio_write
 571              	.LVL26:
  97:lcdlib/daisy_ILI9341.hpp ****         dsy_gpio_write(&pin_reset_, 1);
 572              		.loc 6 97 9 is_stmt 1 view .LVU175
  97:lcdlib/daisy_ILI9341.hpp ****         dsy_gpio_write(&pin_reset_, 1);
 573              		.loc 6 97 22 is_stmt 0 view .LVU176
 574 00f4 6420     		movs	r0, #100
 575 00f6 FFF7FEFF 		bl	_ZN5daisy6System5DelayEm
 576              	.LVL27:
  98:lcdlib/daisy_ILI9341.hpp ****         System::Delay(100);
 577              		.loc 6 98 9 is_stmt 1 view .LVU177
  98:lcdlib/daisy_ILI9341.hpp ****         System::Delay(100);
 578              		.loc 6 98 23 is_stmt 0 view .LVU178
 579 00fa 2146     		mov	r1, r4
 580 00fc 5046     		mov	r0, r10
 581 00fe 4FF0360A 		mov	r10, #54
 582 0102 FFF7FEFF 		bl	dsy_gpio_write
 583              	.LVL28:
  99:lcdlib/daisy_ILI9341.hpp ****     }
 584              		.loc 6 99 9 is_stmt 1 view .LVU179
  99:lcdlib/daisy_ILI9341.hpp ****     }
 585              		.loc 6 99 22 is_stmt 0 view .LVU180
 586 0106 6420     		movs	r0, #100
 587 0108 FFF7FEFF 		bl	_ZN5daisy6System5DelayEm
 588              	.LVL29:
  99:lcdlib/daisy_ILI9341.hpp ****     }
 589              		.loc 6 99 22 view .LVU181
 590              	.LBE369:
 591              	.LBE375:
 339:lcdlib/daisy_ILI9341.hpp ****         System::Delay(100); // TODO: maybe less?
 592              		.loc 6 339 9 is_stmt 1 view .LVU182
 593              	.LBB376:
 594              	.LBB377:
 164:lcdlib/daisy_ILI9341.hpp ****         return spi_.BlockingTransmit(&cmd, 1);
 595              		.loc 6 164 23 is_stmt 0 view .LVU183
 596 010c 3946     		mov	r1, r7
 597 010e 3046     		mov	r0, r6
 598 0110 8DF80040 		strb	r4, [sp]
 599              	.LVL30:
 164:lcdlib/daisy_ILI9341.hpp ****         return spi_.BlockingTransmit(&cmd, 1);
 600              		.loc 6 164 23 view .LVU184
ARM GAS  /var/folders/cl/k1vt3d7567s5t107m3sv9whr0000gn/T//cclnrocj.s 			page 31


 601              	.LBE377:
 602              	.LBI376:
 162:lcdlib/daisy_ILI9341.hpp ****     {
 603              		.loc 6 162 23 is_stmt 1 view .LVU185
 604              	.LBB378:
 164:lcdlib/daisy_ILI9341.hpp ****         return spi_.BlockingTransmit(&cmd, 1);
 605              		.loc 6 164 9 view .LVU186
 164:lcdlib/daisy_ILI9341.hpp ****         return spi_.BlockingTransmit(&cmd, 1);
 606              		.loc 6 164 23 is_stmt 0 view .LVU187
 607 0114 FFF7FEFF 		bl	dsy_gpio_write
 608              	.LVL31:
 165:lcdlib/daisy_ILI9341.hpp ****     };
 609              		.loc 6 165 9 is_stmt 1 view .LVU188
 165:lcdlib/daisy_ILI9341.hpp ****     };
 610              		.loc 6 165 37 is_stmt 0 view .LVU189
 611 0118 2246     		mov	r2, r4
 612 011a 6946     		mov	r1, sp
 613 011c 6423     		movs	r3, #100
 614 011e 2846     		mov	r0, r5
 615 0120 FFF7FEFF 		bl	_ZN5daisy9SpiHandle16BlockingTransmitEPhjm
 616              	.LVL32:
 165:lcdlib/daisy_ILI9341.hpp ****     };
 617              		.loc 6 165 37 view .LVU190
 618              	.LBE378:
 619              	.LBE376:
 340:lcdlib/daisy_ILI9341.hpp **** 
 620              		.loc 6 340 9 is_stmt 1 view .LVU191
 340:lcdlib/daisy_ILI9341.hpp **** 
 621              		.loc 6 340 22 is_stmt 0 view .LVU192
 622 0124 6420     		movs	r0, #100
 623 0126 FFF7FEFF 		bl	_ZN5daisy6System5DelayEm
 624              	.LVL33:
 345:lcdlib/daisy_ILI9341.hpp ****         {
 625              		.loc 6 345 9 is_stmt 1 view .LVU193
 345:lcdlib/daisy_ILI9341.hpp ****         {
 626              		.loc 6 345 9 is_stmt 0 view .LVU194
 627 012a CB23     		movs	r3, #203
 628              	.LBB379:
 629              	.LBB380:
 164:lcdlib/daisy_ILI9341.hpp ****         return spi_.BlockingTransmit(&cmd, 1);
 630              		.loc 6 164 23 view .LVU195
 631 012c 3946     		mov	r1, r7
 632 012e 3046     		mov	r0, r6
 633 0130 8DF80030 		strb	r3, [sp]
 634              	.LVL34:
 164:lcdlib/daisy_ILI9341.hpp ****         return spi_.BlockingTransmit(&cmd, 1);
 635              		.loc 6 164 23 view .LVU196
 636              	.LBE380:
 637              	.LBI379:
 162:lcdlib/daisy_ILI9341.hpp ****     {
 638              		.loc 6 162 23 is_stmt 1 view .LVU197
 639              	.LBB381:
 164:lcdlib/daisy_ILI9341.hpp ****         return spi_.BlockingTransmit(&cmd, 1);
 640              		.loc 6 164 9 view .LVU198
 164:lcdlib/daisy_ILI9341.hpp ****         return spi_.BlockingTransmit(&cmd, 1);
 641              		.loc 6 164 23 is_stmt 0 view .LVU199
 642 0134 FFF7FEFF 		bl	dsy_gpio_write
ARM GAS  /var/folders/cl/k1vt3d7567s5t107m3sv9whr0000gn/T//cclnrocj.s 			page 32


 643              	.LVL35:
 165:lcdlib/daisy_ILI9341.hpp ****     };
 644              		.loc 6 165 9 is_stmt 1 view .LVU200
 165:lcdlib/daisy_ILI9341.hpp ****     };
 645              		.loc 6 165 37 is_stmt 0 view .LVU201
 646 0138 2246     		mov	r2, r4
 647 013a 6946     		mov	r1, sp
 648 013c 6423     		movs	r3, #100
 649 013e 2846     		mov	r0, r5
 650 0140 FFF7FEFF 		bl	_ZN5daisy9SpiHandle16BlockingTransmitEPhjm
 651              	.LVL36:
 165:lcdlib/daisy_ILI9341.hpp ****     };
 652              		.loc 6 165 37 view .LVU202
 653              	.LBE381:
 654              	.LBE379:
 346:lcdlib/daisy_ILI9341.hpp ****             uint8_t data[5] = {0x39, 0x2C, 0x00, 0x34, 0x02};
 655              		.loc 6 346 9 is_stmt 1 view .LVU203
 656              	.LBB382:
 347:lcdlib/daisy_ILI9341.hpp ****             transport_.SendData(data, 5);
 657              		.loc 6 347 13 view .LVU204
 347:lcdlib/daisy_ILI9341.hpp ****             transport_.SendData(data, 5);
 658              		.loc 6 347 21 is_stmt 0 view .LVU205
 659 0144 09F10C03 		add	r3, r9, #12
 660              	.LBE382:
 661              	.LBB387:
 480:lcdlib/daisy_ILI9341.hpp ****                                 0x0E,
 662              		.loc 6 480 21 view .LVU206
 663 0148 09F11C09 		add	r9, r9, #28
 664              	.LBE387:
 665              	.LBB392:
 347:lcdlib/daisy_ILI9341.hpp ****             transport_.SendData(data, 5);
 666              		.loc 6 347 21 view .LVU207
 667 014c 93E80300 		ldm	r3, {r0, r1}
 668 0150 0090     		str	r0, [sp]
 669              	.LBB383:
 670              	.LBB384:
 170:lcdlib/daisy_ILI9341.hpp ****         return spi_.BlockingTransmit(buff, size);
 671              		.loc 6 170 23 view .LVU208
 672 0152 3046     		mov	r0, r6
 673              	.LBE384:
 674              	.LBE383:
 347:lcdlib/daisy_ILI9341.hpp ****             transport_.SendData(data, 5);
 675              		.loc 6 347 21 view .LVU209
 676 0154 8DF80410 		strb	r1, [sp, #4]
 348:lcdlib/daisy_ILI9341.hpp ****         }
 677              		.loc 6 348 13 is_stmt 1 view .LVU210
 678              	.LVL37:
 679              	.LBB386:
 680              	.LBI383:
 168:lcdlib/daisy_ILI9341.hpp ****     {
 681              		.loc 6 168 23 view .LVU211
 682              	.LBB385:
 170:lcdlib/daisy_ILI9341.hpp ****         return spi_.BlockingTransmit(buff, size);
 683              		.loc 6 170 9 view .LVU212
 170:lcdlib/daisy_ILI9341.hpp ****         return spi_.BlockingTransmit(buff, size);
 684              		.loc 6 170 23 is_stmt 0 view .LVU213
 685 0158 2146     		mov	r1, r4
ARM GAS  /var/folders/cl/k1vt3d7567s5t107m3sv9whr0000gn/T//cclnrocj.s 			page 33


 686 015a FFF7FEFF 		bl	dsy_gpio_write
 687              	.LVL38:
 171:lcdlib/daisy_ILI9341.hpp ****     };
 688              		.loc 6 171 9 is_stmt 1 view .LVU214
 171:lcdlib/daisy_ILI9341.hpp ****     };
 689              		.loc 6 171 37 is_stmt 0 view .LVU215
 690 015e 0522     		movs	r2, #5
 691 0160 6946     		mov	r1, sp
 692 0162 6423     		movs	r3, #100
 693 0164 2846     		mov	r0, r5
 694 0166 FFF7FEFF 		bl	_ZN5daisy9SpiHandle16BlockingTransmitEPhjm
 695              	.LVL39:
 171:lcdlib/daisy_ILI9341.hpp ****     };
 696              		.loc 6 171 37 view .LVU216
 697              	.LBE385:
 698              	.LBE386:
 699              	.LBE392:
 352:lcdlib/daisy_ILI9341.hpp ****         {
 700              		.loc 6 352 9 is_stmt 1 view .LVU217
 352:lcdlib/daisy_ILI9341.hpp ****         {
 701              		.loc 6 352 9 is_stmt 0 view .LVU218
 702 016a CF23     		movs	r3, #207
 703              	.LBB393:
 704              	.LBB394:
 164:lcdlib/daisy_ILI9341.hpp ****         return spi_.BlockingTransmit(&cmd, 1);
 705              		.loc 6 164 23 view .LVU219
 706 016c 3946     		mov	r1, r7
 707 016e 3046     		mov	r0, r6
 708 0170 8DF80030 		strb	r3, [sp]
 709              	.LVL40:
 164:lcdlib/daisy_ILI9341.hpp ****         return spi_.BlockingTransmit(&cmd, 1);
 710              		.loc 6 164 23 view .LVU220
 711              	.LBE394:
 712              	.LBI393:
 162:lcdlib/daisy_ILI9341.hpp ****     {
 713              		.loc 6 162 23 is_stmt 1 view .LVU221
 714              	.LBB395:
 164:lcdlib/daisy_ILI9341.hpp ****         return spi_.BlockingTransmit(&cmd, 1);
 715              		.loc 6 164 9 view .LVU222
 164:lcdlib/daisy_ILI9341.hpp ****         return spi_.BlockingTransmit(&cmd, 1);
 716              		.loc 6 164 23 is_stmt 0 view .LVU223
 717 0174 FFF7FEFF 		bl	dsy_gpio_write
 718              	.LVL41:
 165:lcdlib/daisy_ILI9341.hpp ****     };
 719              		.loc 6 165 9 is_stmt 1 view .LVU224
 165:lcdlib/daisy_ILI9341.hpp ****     };
 720              		.loc 6 165 37 is_stmt 0 view .LVU225
 721 0178 2246     		mov	r2, r4
 722 017a 6946     		mov	r1, sp
 723 017c 6423     		movs	r3, #100
 724 017e 2846     		mov	r0, r5
 725 0180 FFF7FEFF 		bl	_ZN5daisy9SpiHandle16BlockingTransmitEPhjm
 726              	.LVL42:
 165:lcdlib/daisy_ILI9341.hpp ****     };
 727              		.loc 6 165 37 view .LVU226
 728              	.LBE395:
 729              	.LBE393:
ARM GAS  /var/folders/cl/k1vt3d7567s5t107m3sv9whr0000gn/T//cclnrocj.s 			page 34


 353:lcdlib/daisy_ILI9341.hpp ****             uint8_t data[3] = {0x00, 0xC1, 0x30};
 730              		.loc 6 353 9 is_stmt 1 view .LVU227
 731              	.LBB396:
 354:lcdlib/daisy_ILI9341.hpp ****             transport_.SendData(data, 3);
 732              		.loc 6 354 13 view .LVU228
 354:lcdlib/daisy_ILI9341.hpp ****             transport_.SendData(data, 3);
 733              		.loc 6 354 21 is_stmt 0 view .LVU229
 734 0184 59F8083C 		ldr	r3, [r9, #-8]
 735              	.LBB397:
 736              	.LBB398:
 170:lcdlib/daisy_ILI9341.hpp ****         return spi_.BlockingTransmit(buff, size);
 737              		.loc 6 170 23 view .LVU230
 738 0188 2146     		mov	r1, r4
 739 018a 3046     		mov	r0, r6
 740              	.LBE398:
 741              	.LBE397:
 354:lcdlib/daisy_ILI9341.hpp ****             transport_.SendData(data, 3);
 742              		.loc 6 354 21 view .LVU231
 743 018c ADF80030 		strh	r3, [sp]	@ movhi
 744 0190 1B0C     		lsrs	r3, r3, #16
 745 0192 8DF80230 		strb	r3, [sp, #2]
 355:lcdlib/daisy_ILI9341.hpp ****         }
 746              		.loc 6 355 13 is_stmt 1 view .LVU232
 747              	.LVL43:
 748              	.LBB400:
 749              	.LBI397:
 168:lcdlib/daisy_ILI9341.hpp ****     {
 750              		.loc 6 168 23 view .LVU233
 751              	.LBB399:
 170:lcdlib/daisy_ILI9341.hpp ****         return spi_.BlockingTransmit(buff, size);
 752              		.loc 6 170 9 view .LVU234
 170:lcdlib/daisy_ILI9341.hpp ****         return spi_.BlockingTransmit(buff, size);
 753              		.loc 6 170 23 is_stmt 0 view .LVU235
 754 0196 FFF7FEFF 		bl	dsy_gpio_write
 755              	.LVL44:
 171:lcdlib/daisy_ILI9341.hpp ****     };
 756              		.loc 6 171 9 is_stmt 1 view .LVU236
 171:lcdlib/daisy_ILI9341.hpp ****     };
 757              		.loc 6 171 37 is_stmt 0 view .LVU237
 758 019a 0322     		movs	r2, #3
 759 019c 6946     		mov	r1, sp
 760 019e 6423     		movs	r3, #100
 761 01a0 2846     		mov	r0, r5
 762 01a2 FFF7FEFF 		bl	_ZN5daisy9SpiHandle16BlockingTransmitEPhjm
 763              	.LVL45:
 171:lcdlib/daisy_ILI9341.hpp ****     };
 764              		.loc 6 171 37 view .LVU238
 765              	.LBE399:
 766              	.LBE400:
 767              	.LBE396:
 359:lcdlib/daisy_ILI9341.hpp ****         {
 768              		.loc 6 359 9 is_stmt 1 view .LVU239
 359:lcdlib/daisy_ILI9341.hpp ****         {
 769              		.loc 6 359 9 is_stmt 0 view .LVU240
 770 01a6 E823     		movs	r3, #232
 771              	.LBB401:
 772              	.LBB402:
ARM GAS  /var/folders/cl/k1vt3d7567s5t107m3sv9whr0000gn/T//cclnrocj.s 			page 35


 164:lcdlib/daisy_ILI9341.hpp ****         return spi_.BlockingTransmit(&cmd, 1);
 773              		.loc 6 164 23 view .LVU241
 774 01a8 3946     		mov	r1, r7
 775 01aa 3046     		mov	r0, r6
 776 01ac 8DF80030 		strb	r3, [sp]
 777              	.LVL46:
 164:lcdlib/daisy_ILI9341.hpp ****         return spi_.BlockingTransmit(&cmd, 1);
 778              		.loc 6 164 23 view .LVU242
 779              	.LBE402:
 780              	.LBI401:
 162:lcdlib/daisy_ILI9341.hpp ****     {
 781              		.loc 6 162 23 is_stmt 1 view .LVU243
 782              	.LBB403:
 164:lcdlib/daisy_ILI9341.hpp ****         return spi_.BlockingTransmit(&cmd, 1);
 783              		.loc 6 164 9 view .LVU244
 164:lcdlib/daisy_ILI9341.hpp ****         return spi_.BlockingTransmit(&cmd, 1);
 784              		.loc 6 164 23 is_stmt 0 view .LVU245
 785 01b0 FFF7FEFF 		bl	dsy_gpio_write
 786              	.LVL47:
 165:lcdlib/daisy_ILI9341.hpp ****     };
 787              		.loc 6 165 9 is_stmt 1 view .LVU246
 165:lcdlib/daisy_ILI9341.hpp ****     };
 788              		.loc 6 165 37 is_stmt 0 view .LVU247
 789 01b4 2246     		mov	r2, r4
 790 01b6 6946     		mov	r1, sp
 791 01b8 6423     		movs	r3, #100
 792 01ba 2846     		mov	r0, r5
 793 01bc FFF7FEFF 		bl	_ZN5daisy9SpiHandle16BlockingTransmitEPhjm
 794              	.LVL48:
 165:lcdlib/daisy_ILI9341.hpp ****     };
 795              		.loc 6 165 37 view .LVU248
 796              	.LBE403:
 797              	.LBE401:
 360:lcdlib/daisy_ILI9341.hpp ****             uint8_t data[3] = {0x85, 0x00, 0x78};
 798              		.loc 6 360 9 is_stmt 1 view .LVU249
 799              	.LBB404:
 361:lcdlib/daisy_ILI9341.hpp ****             transport_.SendData(data, 3);
 800              		.loc 6 361 13 view .LVU250
 361:lcdlib/daisy_ILI9341.hpp ****             transport_.SendData(data, 3);
 801              		.loc 6 361 21 is_stmt 0 view .LVU251
 802 01c0 59F8043C 		ldr	r3, [r9, #-4]
 803              	.LBB405:
 804              	.LBB406:
 170:lcdlib/daisy_ILI9341.hpp ****         return spi_.BlockingTransmit(buff, size);
 805              		.loc 6 170 23 view .LVU252
 806 01c4 2146     		mov	r1, r4
 807 01c6 3046     		mov	r0, r6
 808              	.LBE406:
 809              	.LBE405:
 361:lcdlib/daisy_ILI9341.hpp ****             transport_.SendData(data, 3);
 810              		.loc 6 361 21 view .LVU253
 811 01c8 ADF80030 		strh	r3, [sp]	@ movhi
 812 01cc 1B0C     		lsrs	r3, r3, #16
 813 01ce 8DF80230 		strb	r3, [sp, #2]
 362:lcdlib/daisy_ILI9341.hpp ****         }
 814              		.loc 6 362 13 is_stmt 1 view .LVU254
 815              	.LVL49:
ARM GAS  /var/folders/cl/k1vt3d7567s5t107m3sv9whr0000gn/T//cclnrocj.s 			page 36


 816              	.LBB408:
 817              	.LBI405:
 168:lcdlib/daisy_ILI9341.hpp ****     {
 818              		.loc 6 168 23 view .LVU255
 819              	.LBB407:
 170:lcdlib/daisy_ILI9341.hpp ****         return spi_.BlockingTransmit(buff, size);
 820              		.loc 6 170 9 view .LVU256
 170:lcdlib/daisy_ILI9341.hpp ****         return spi_.BlockingTransmit(buff, size);
 821              		.loc 6 170 23 is_stmt 0 view .LVU257
 822 01d2 FFF7FEFF 		bl	dsy_gpio_write
 823              	.LVL50:
 171:lcdlib/daisy_ILI9341.hpp ****     };
 824              		.loc 6 171 9 is_stmt 1 view .LVU258
 171:lcdlib/daisy_ILI9341.hpp ****     };
 825              		.loc 6 171 37 is_stmt 0 view .LVU259
 826 01d6 0322     		movs	r2, #3
 827 01d8 6946     		mov	r1, sp
 828 01da 6423     		movs	r3, #100
 829 01dc 2846     		mov	r0, r5
 830 01de FFF7FEFF 		bl	_ZN5daisy9SpiHandle16BlockingTransmitEPhjm
 831              	.LVL51:
 171:lcdlib/daisy_ILI9341.hpp ****     };
 832              		.loc 6 171 37 view .LVU260
 833              	.LBE407:
 834              	.LBE408:
 835              	.LBE404:
 366:lcdlib/daisy_ILI9341.hpp ****         {
 836              		.loc 6 366 9 is_stmt 1 view .LVU261
 366:lcdlib/daisy_ILI9341.hpp ****         {
 837              		.loc 6 366 9 is_stmt 0 view .LVU262
 838 01e2 EA23     		movs	r3, #234
 839              	.LBB409:
 840              	.LBB410:
 164:lcdlib/daisy_ILI9341.hpp ****         return spi_.BlockingTransmit(&cmd, 1);
 841              		.loc 6 164 23 view .LVU263
 842 01e4 3946     		mov	r1, r7
 843 01e6 3046     		mov	r0, r6
 844 01e8 8DF80030 		strb	r3, [sp]
 845              	.LVL52:
 164:lcdlib/daisy_ILI9341.hpp ****         return spi_.BlockingTransmit(&cmd, 1);
 846              		.loc 6 164 23 view .LVU264
 847              	.LBE410:
 848              	.LBI409:
 162:lcdlib/daisy_ILI9341.hpp ****     {
 849              		.loc 6 162 23 is_stmt 1 view .LVU265
 850              	.LBB411:
 164:lcdlib/daisy_ILI9341.hpp ****         return spi_.BlockingTransmit(&cmd, 1);
 851              		.loc 6 164 9 view .LVU266
 164:lcdlib/daisy_ILI9341.hpp ****         return spi_.BlockingTransmit(&cmd, 1);
 852              		.loc 6 164 23 is_stmt 0 view .LVU267
 853 01ec FFF7FEFF 		bl	dsy_gpio_write
 854              	.LVL53:
 165:lcdlib/daisy_ILI9341.hpp ****     };
 855              		.loc 6 165 9 is_stmt 1 view .LVU268
 165:lcdlib/daisy_ILI9341.hpp ****     };
 856              		.loc 6 165 37 is_stmt 0 view .LVU269
 857 01f0 2246     		mov	r2, r4
ARM GAS  /var/folders/cl/k1vt3d7567s5t107m3sv9whr0000gn/T//cclnrocj.s 			page 37


 858 01f2 6423     		movs	r3, #100
 859 01f4 6946     		mov	r1, sp
 860 01f6 2846     		mov	r0, r5
 861 01f8 FFF7FEFF 		bl	_ZN5daisy9SpiHandle16BlockingTransmitEPhjm
 862              	.LVL54:
 165:lcdlib/daisy_ILI9341.hpp ****     };
 863              		.loc 6 165 37 view .LVU270
 864              	.LBE411:
 865              	.LBE409:
 367:lcdlib/daisy_ILI9341.hpp ****             uint8_t data[2] = {0x00, 0x00};
 866              		.loc 6 367 9 is_stmt 1 view .LVU271
 867              	.LBB412:
 368:lcdlib/daisy_ILI9341.hpp ****             transport_.SendData(data, 2);
 868              		.loc 6 368 13 view .LVU272
 869              	.LBB413:
 870              	.LBB414:
 170:lcdlib/daisy_ILI9341.hpp ****         return spi_.BlockingTransmit(buff, size);
 871              		.loc 6 170 23 is_stmt 0 view .LVU273
 872 01fc 2146     		mov	r1, r4
 873 01fe 3046     		mov	r0, r6
 874              	.LBE414:
 875              	.LBE413:
 368:lcdlib/daisy_ILI9341.hpp ****             transport_.SendData(data, 2);
 876              		.loc 6 368 21 view .LVU274
 877 0200 ADF80070 		strh	r7, [sp]	@ movhi
 369:lcdlib/daisy_ILI9341.hpp ****         }
 878              		.loc 6 369 13 is_stmt 1 view .LVU275
 879              	.LVL55:
 880              	.LBB416:
 881              	.LBI413:
 168:lcdlib/daisy_ILI9341.hpp ****     {
 882              		.loc 6 168 23 view .LVU276
 883              	.LBB415:
 170:lcdlib/daisy_ILI9341.hpp ****         return spi_.BlockingTransmit(buff, size);
 884              		.loc 6 170 9 view .LVU277
 170:lcdlib/daisy_ILI9341.hpp ****         return spi_.BlockingTransmit(buff, size);
 885              		.loc 6 170 23 is_stmt 0 view .LVU278
 886 0204 FFF7FEFF 		bl	dsy_gpio_write
 887              	.LVL56:
 171:lcdlib/daisy_ILI9341.hpp ****     };
 888              		.loc 6 171 9 is_stmt 1 view .LVU279
 171:lcdlib/daisy_ILI9341.hpp ****     };
 889              		.loc 6 171 37 is_stmt 0 view .LVU280
 890 0208 5A46     		mov	r2, fp
 891 020a 6946     		mov	r1, sp
 892 020c 6423     		movs	r3, #100
 893 020e 2846     		mov	r0, r5
 894 0210 FFF7FEFF 		bl	_ZN5daisy9SpiHandle16BlockingTransmitEPhjm
 895              	.LVL57:
 171:lcdlib/daisy_ILI9341.hpp ****     };
 896              		.loc 6 171 37 view .LVU281
 897              	.LBE415:
 898              	.LBE416:
 899              	.LBE412:
 373:lcdlib/daisy_ILI9341.hpp ****         {
 900              		.loc 6 373 9 is_stmt 1 view .LVU282
 373:lcdlib/daisy_ILI9341.hpp ****         {
ARM GAS  /var/folders/cl/k1vt3d7567s5t107m3sv9whr0000gn/T//cclnrocj.s 			page 38


 901              		.loc 6 373 9 is_stmt 0 view .LVU283
 902 0214 ED23     		movs	r3, #237
 903              	.LBB417:
 904              	.LBB418:
 164:lcdlib/daisy_ILI9341.hpp ****         return spi_.BlockingTransmit(&cmd, 1);
 905              		.loc 6 164 23 view .LVU284
 906 0216 3946     		mov	r1, r7
 907 0218 3046     		mov	r0, r6
 908 021a 8DF80030 		strb	r3, [sp]
 909              	.LVL58:
 164:lcdlib/daisy_ILI9341.hpp ****         return spi_.BlockingTransmit(&cmd, 1);
 910              		.loc 6 164 23 view .LVU285
 911              	.LBE418:
 912              	.LBI417:
 162:lcdlib/daisy_ILI9341.hpp ****     {
 913              		.loc 6 162 23 is_stmt 1 view .LVU286
 914              	.LBB419:
 164:lcdlib/daisy_ILI9341.hpp ****         return spi_.BlockingTransmit(&cmd, 1);
 915              		.loc 6 164 9 view .LVU287
 164:lcdlib/daisy_ILI9341.hpp ****         return spi_.BlockingTransmit(&cmd, 1);
 916              		.loc 6 164 23 is_stmt 0 view .LVU288
 917 021e FFF7FEFF 		bl	dsy_gpio_write
 918              	.LVL59:
 165:lcdlib/daisy_ILI9341.hpp ****     };
 919              		.loc 6 165 9 is_stmt 1 view .LVU289
 165:lcdlib/daisy_ILI9341.hpp ****     };
 920              		.loc 6 165 37 is_stmt 0 view .LVU290
 921 0222 2246     		mov	r2, r4
 922 0224 6946     		mov	r1, sp
 923 0226 6423     		movs	r3, #100
 924 0228 2846     		mov	r0, r5
 925 022a FFF7FEFF 		bl	_ZN5daisy9SpiHandle16BlockingTransmitEPhjm
 926              	.LVL60:
 165:lcdlib/daisy_ILI9341.hpp ****     };
 927              		.loc 6 165 37 view .LVU291
 928              	.LBE419:
 929              	.LBE417:
 374:lcdlib/daisy_ILI9341.hpp ****             uint8_t data[4] = {0x64, 0x03, 0x12, 0x81};
 930              		.loc 6 374 9 is_stmt 1 view .LVU292
 931              	.LBB420:
 375:lcdlib/daisy_ILI9341.hpp ****             transport_.SendData(data, 4);
 932              		.loc 6 375 13 view .LVU293
 375:lcdlib/daisy_ILI9341.hpp ****             transport_.SendData(data, 4);
 933              		.loc 6 375 21 is_stmt 0 view .LVU294
 934 022e 994B     		ldr	r3, .L15+32
 935              	.LBB421:
 936              	.LBB422:
 170:lcdlib/daisy_ILI9341.hpp ****         return spi_.BlockingTransmit(buff, size);
 937              		.loc 6 170 23 view .LVU295
 938 0230 2146     		mov	r1, r4
 939 0232 3046     		mov	r0, r6
 940              	.LBE422:
 941              	.LBE421:
 375:lcdlib/daisy_ILI9341.hpp ****             transport_.SendData(data, 4);
 942              		.loc 6 375 21 view .LVU296
 943 0234 0093     		str	r3, [sp]
 376:lcdlib/daisy_ILI9341.hpp ****         }
ARM GAS  /var/folders/cl/k1vt3d7567s5t107m3sv9whr0000gn/T//cclnrocj.s 			page 39


 944              		.loc 6 376 13 is_stmt 1 view .LVU297
 945              	.LVL61:
 946              	.LBB424:
 947              	.LBI421:
 168:lcdlib/daisy_ILI9341.hpp ****     {
 948              		.loc 6 168 23 view .LVU298
 949              	.LBB423:
 170:lcdlib/daisy_ILI9341.hpp ****         return spi_.BlockingTransmit(buff, size);
 950              		.loc 6 170 9 view .LVU299
 170:lcdlib/daisy_ILI9341.hpp ****         return spi_.BlockingTransmit(buff, size);
 951              		.loc 6 170 23 is_stmt 0 view .LVU300
 952 0236 FFF7FEFF 		bl	dsy_gpio_write
 953              	.LVL62:
 171:lcdlib/daisy_ILI9341.hpp ****     };
 954              		.loc 6 171 9 is_stmt 1 view .LVU301
 171:lcdlib/daisy_ILI9341.hpp ****     };
 955              		.loc 6 171 37 is_stmt 0 view .LVU302
 956 023a 0422     		movs	r2, #4
 957 023c 6946     		mov	r1, sp
 958 023e 6423     		movs	r3, #100
 959 0240 2846     		mov	r0, r5
 960 0242 FFF7FEFF 		bl	_ZN5daisy9SpiHandle16BlockingTransmitEPhjm
 961              	.LVL63:
 171:lcdlib/daisy_ILI9341.hpp ****     };
 962              		.loc 6 171 37 view .LVU303
 963              	.LBE423:
 964              	.LBE424:
 965              	.LBE420:
 380:lcdlib/daisy_ILI9341.hpp ****         {
 966              		.loc 6 380 9 is_stmt 1 view .LVU304
 380:lcdlib/daisy_ILI9341.hpp ****         {
 967              		.loc 6 380 9 is_stmt 0 view .LVU305
 968 0246 F723     		movs	r3, #247
 969              	.LBB425:
 970              	.LBB426:
 164:lcdlib/daisy_ILI9341.hpp ****         return spi_.BlockingTransmit(&cmd, 1);
 971              		.loc 6 164 23 view .LVU306
 972 0248 3946     		mov	r1, r7
 973 024a 3046     		mov	r0, r6
 974 024c 8DF80030 		strb	r3, [sp]
 975              	.LVL64:
 164:lcdlib/daisy_ILI9341.hpp ****         return spi_.BlockingTransmit(&cmd, 1);
 976              		.loc 6 164 23 view .LVU307
 977              	.LBE426:
 978              	.LBI425:
 162:lcdlib/daisy_ILI9341.hpp ****     {
 979              		.loc 6 162 23 is_stmt 1 view .LVU308
 980              	.LBB427:
 164:lcdlib/daisy_ILI9341.hpp ****         return spi_.BlockingTransmit(&cmd, 1);
 981              		.loc 6 164 9 view .LVU309
 164:lcdlib/daisy_ILI9341.hpp ****         return spi_.BlockingTransmit(&cmd, 1);
 982              		.loc 6 164 23 is_stmt 0 view .LVU310
 983 0250 FFF7FEFF 		bl	dsy_gpio_write
 984              	.LVL65:
 165:lcdlib/daisy_ILI9341.hpp ****     };
 985              		.loc 6 165 9 is_stmt 1 view .LVU311
 165:lcdlib/daisy_ILI9341.hpp ****     };
ARM GAS  /var/folders/cl/k1vt3d7567s5t107m3sv9whr0000gn/T//cclnrocj.s 			page 40


 986              		.loc 6 165 37 is_stmt 0 view .LVU312
 987 0254 2246     		mov	r2, r4
 988 0256 6946     		mov	r1, sp
 989 0258 6423     		movs	r3, #100
 990 025a 2846     		mov	r0, r5
 991 025c FFF7FEFF 		bl	_ZN5daisy9SpiHandle16BlockingTransmitEPhjm
 992              	.LVL66:
 165:lcdlib/daisy_ILI9341.hpp ****     };
 993              		.loc 6 165 37 view .LVU313
 994              	.LBE427:
 995              	.LBE425:
 381:lcdlib/daisy_ILI9341.hpp ****             uint8_t data[1] = {0x20};
 996              		.loc 6 381 9 is_stmt 1 view .LVU314
 997              	.LBB428:
 382:lcdlib/daisy_ILI9341.hpp ****             transport_.SendData(data, 1);
 998              		.loc 6 382 13 view .LVU315
 382:lcdlib/daisy_ILI9341.hpp ****             transport_.SendData(data, 1);
 999              		.loc 6 382 21 is_stmt 0 view .LVU316
 1000 0260 2023     		movs	r3, #32
 1001              	.LBB429:
 1002              	.LBB430:
 170:lcdlib/daisy_ILI9341.hpp ****         return spi_.BlockingTransmit(buff, size);
 1003              		.loc 6 170 23 view .LVU317
 1004 0262 2146     		mov	r1, r4
 1005 0264 3046     		mov	r0, r6
 1006              	.LBE430:
 1007              	.LBE429:
 382:lcdlib/daisy_ILI9341.hpp ****             transport_.SendData(data, 1);
 1008              		.loc 6 382 21 view .LVU318
 1009 0266 8DF80030 		strb	r3, [sp]
 383:lcdlib/daisy_ILI9341.hpp ****         }
 1010              		.loc 6 383 13 is_stmt 1 view .LVU319
 1011              	.LVL67:
 1012              	.LBB432:
 1013              	.LBI429:
 168:lcdlib/daisy_ILI9341.hpp ****     {
 1014              		.loc 6 168 23 view .LVU320
 1015              	.LBB431:
 170:lcdlib/daisy_ILI9341.hpp ****         return spi_.BlockingTransmit(buff, size);
 1016              		.loc 6 170 9 view .LVU321
 170:lcdlib/daisy_ILI9341.hpp ****         return spi_.BlockingTransmit(buff, size);
 1017              		.loc 6 170 23 is_stmt 0 view .LVU322
 1018 026a FFF7FEFF 		bl	dsy_gpio_write
 1019              	.LVL68:
 171:lcdlib/daisy_ILI9341.hpp ****     };
 1020              		.loc 6 171 9 is_stmt 1 view .LVU323
 171:lcdlib/daisy_ILI9341.hpp ****     };
 1021              		.loc 6 171 37 is_stmt 0 view .LVU324
 1022 026e 2246     		mov	r2, r4
 1023 0270 6946     		mov	r1, sp
 1024 0272 6423     		movs	r3, #100
 1025 0274 2846     		mov	r0, r5
 1026 0276 FFF7FEFF 		bl	_ZN5daisy9SpiHandle16BlockingTransmitEPhjm
 1027              	.LVL69:
 171:lcdlib/daisy_ILI9341.hpp ****     };
 1028              		.loc 6 171 37 view .LVU325
 1029              	.LBE431:
ARM GAS  /var/folders/cl/k1vt3d7567s5t107m3sv9whr0000gn/T//cclnrocj.s 			page 41


 1030              	.LBE432:
 1031              	.LBE428:
 387:lcdlib/daisy_ILI9341.hpp ****         {
 1032              		.loc 6 387 9 is_stmt 1 view .LVU326
 387:lcdlib/daisy_ILI9341.hpp ****         {
 1033              		.loc 6 387 9 is_stmt 0 view .LVU327
 1034 027a C023     		movs	r3, #192
 1035              	.LBB433:
 1036              	.LBB434:
 164:lcdlib/daisy_ILI9341.hpp ****         return spi_.BlockingTransmit(&cmd, 1);
 1037              		.loc 6 164 23 view .LVU328
 1038 027c 3946     		mov	r1, r7
 1039 027e 3046     		mov	r0, r6
 1040 0280 8DF80030 		strb	r3, [sp]
 1041              	.LVL70:
 164:lcdlib/daisy_ILI9341.hpp ****         return spi_.BlockingTransmit(&cmd, 1);
 1042              		.loc 6 164 23 view .LVU329
 1043              	.LBE434:
 1044              	.LBI433:
 162:lcdlib/daisy_ILI9341.hpp ****     {
 1045              		.loc 6 162 23 is_stmt 1 view .LVU330
 1046              	.LBB435:
 164:lcdlib/daisy_ILI9341.hpp ****         return spi_.BlockingTransmit(&cmd, 1);
 1047              		.loc 6 164 9 view .LVU331
 164:lcdlib/daisy_ILI9341.hpp ****         return spi_.BlockingTransmit(&cmd, 1);
 1048              		.loc 6 164 23 is_stmt 0 view .LVU332
 1049 0284 FFF7FEFF 		bl	dsy_gpio_write
 1050              	.LVL71:
 165:lcdlib/daisy_ILI9341.hpp ****     };
 1051              		.loc 6 165 9 is_stmt 1 view .LVU333
 165:lcdlib/daisy_ILI9341.hpp ****     };
 1052              		.loc 6 165 37 is_stmt 0 view .LVU334
 1053 0288 2246     		mov	r2, r4
 1054 028a 6946     		mov	r1, sp
 1055 028c 6423     		movs	r3, #100
 1056 028e 2846     		mov	r0, r5
 1057 0290 FFF7FEFF 		bl	_ZN5daisy9SpiHandle16BlockingTransmitEPhjm
 1058              	.LVL72:
 165:lcdlib/daisy_ILI9341.hpp ****     };
 1059              		.loc 6 165 37 view .LVU335
 1060              	.LBE435:
 1061              	.LBE433:
 388:lcdlib/daisy_ILI9341.hpp ****             uint8_t data[1] = {0x23};
 1062              		.loc 6 388 9 is_stmt 1 view .LVU336
 1063              	.LBB436:
 389:lcdlib/daisy_ILI9341.hpp ****             transport_.SendData(data, 1);
 1064              		.loc 6 389 13 view .LVU337
 389:lcdlib/daisy_ILI9341.hpp ****             transport_.SendData(data, 1);
 1065              		.loc 6 389 21 is_stmt 0 view .LVU338
 1066 0294 2323     		movs	r3, #35
 1067              	.LBB437:
 1068              	.LBB438:
 170:lcdlib/daisy_ILI9341.hpp ****         return spi_.BlockingTransmit(buff, size);
 1069              		.loc 6 170 23 view .LVU339
 1070 0296 2146     		mov	r1, r4
 1071 0298 3046     		mov	r0, r6
 1072              	.LBE438:
ARM GAS  /var/folders/cl/k1vt3d7567s5t107m3sv9whr0000gn/T//cclnrocj.s 			page 42


 1073              	.LBE437:
 389:lcdlib/daisy_ILI9341.hpp ****             transport_.SendData(data, 1);
 1074              		.loc 6 389 21 view .LVU340
 1075 029a 8DF80030 		strb	r3, [sp]
 390:lcdlib/daisy_ILI9341.hpp ****         }
 1076              		.loc 6 390 13 is_stmt 1 view .LVU341
 1077              	.LVL73:
 1078              	.LBB440:
 1079              	.LBI437:
 168:lcdlib/daisy_ILI9341.hpp ****     {
 1080              		.loc 6 168 23 view .LVU342
 1081              	.LBB439:
 170:lcdlib/daisy_ILI9341.hpp ****         return spi_.BlockingTransmit(buff, size);
 1082              		.loc 6 170 9 view .LVU343
 170:lcdlib/daisy_ILI9341.hpp ****         return spi_.BlockingTransmit(buff, size);
 1083              		.loc 6 170 23 is_stmt 0 view .LVU344
 1084 029e FFF7FEFF 		bl	dsy_gpio_write
 1085              	.LVL74:
 171:lcdlib/daisy_ILI9341.hpp ****     };
 1086              		.loc 6 171 9 is_stmt 1 view .LVU345
 171:lcdlib/daisy_ILI9341.hpp ****     };
 1087              		.loc 6 171 37 is_stmt 0 view .LVU346
 1088 02a2 2246     		mov	r2, r4
 1089 02a4 6946     		mov	r1, sp
 1090 02a6 6423     		movs	r3, #100
 1091 02a8 2846     		mov	r0, r5
 1092 02aa FFF7FEFF 		bl	_ZN5daisy9SpiHandle16BlockingTransmitEPhjm
 1093              	.LVL75:
 171:lcdlib/daisy_ILI9341.hpp ****     };
 1094              		.loc 6 171 37 view .LVU347
 1095              	.LBE439:
 1096              	.LBE440:
 1097              	.LBE436:
 394:lcdlib/daisy_ILI9341.hpp ****         {
 1098              		.loc 6 394 9 is_stmt 1 view .LVU348
 394:lcdlib/daisy_ILI9341.hpp ****         {
 1099              		.loc 6 394 9 is_stmt 0 view .LVU349
 1100 02ae C123     		movs	r3, #193
 1101              	.LBB441:
 1102              	.LBB442:
 164:lcdlib/daisy_ILI9341.hpp ****         return spi_.BlockingTransmit(&cmd, 1);
 1103              		.loc 6 164 23 view .LVU350
 1104 02b0 3946     		mov	r1, r7
 1105 02b2 3046     		mov	r0, r6
 1106 02b4 8DF80030 		strb	r3, [sp]
 1107              	.LVL76:
 164:lcdlib/daisy_ILI9341.hpp ****         return spi_.BlockingTransmit(&cmd, 1);
 1108              		.loc 6 164 23 view .LVU351
 1109              	.LBE442:
 1110              	.LBI441:
 162:lcdlib/daisy_ILI9341.hpp ****     {
 1111              		.loc 6 162 23 is_stmt 1 view .LVU352
 1112              	.LBB443:
 164:lcdlib/daisy_ILI9341.hpp ****         return spi_.BlockingTransmit(&cmd, 1);
 1113              		.loc 6 164 9 view .LVU353
 164:lcdlib/daisy_ILI9341.hpp ****         return spi_.BlockingTransmit(&cmd, 1);
 1114              		.loc 6 164 23 is_stmt 0 view .LVU354
ARM GAS  /var/folders/cl/k1vt3d7567s5t107m3sv9whr0000gn/T//cclnrocj.s 			page 43


 1115 02b8 FFF7FEFF 		bl	dsy_gpio_write
 1116              	.LVL77:
 165:lcdlib/daisy_ILI9341.hpp ****     };
 1117              		.loc 6 165 9 is_stmt 1 view .LVU355
 165:lcdlib/daisy_ILI9341.hpp ****     };
 1118              		.loc 6 165 37 is_stmt 0 view .LVU356
 1119 02bc 2246     		mov	r2, r4
 1120 02be 6946     		mov	r1, sp
 1121 02c0 6423     		movs	r3, #100
 1122 02c2 2846     		mov	r0, r5
 1123 02c4 FFF7FEFF 		bl	_ZN5daisy9SpiHandle16BlockingTransmitEPhjm
 1124              	.LVL78:
 165:lcdlib/daisy_ILI9341.hpp ****     };
 1125              		.loc 6 165 37 view .LVU357
 1126              	.LBE443:
 1127              	.LBE441:
 395:lcdlib/daisy_ILI9341.hpp ****             uint8_t data[1] = {0x10};
 1128              		.loc 6 395 9 is_stmt 1 view .LVU358
 1129              	.LBB444:
 396:lcdlib/daisy_ILI9341.hpp ****             transport_.SendData(data, 1);
 1130              		.loc 6 396 13 view .LVU359
 396:lcdlib/daisy_ILI9341.hpp ****             transport_.SendData(data, 1);
 1131              		.loc 6 396 21 is_stmt 0 view .LVU360
 1132 02c8 1023     		movs	r3, #16
 1133              	.LBB445:
 1134              	.LBB446:
 170:lcdlib/daisy_ILI9341.hpp ****         return spi_.BlockingTransmit(buff, size);
 1135              		.loc 6 170 23 view .LVU361
 1136 02ca 2146     		mov	r1, r4
 1137 02cc 3046     		mov	r0, r6
 1138              	.LBE446:
 1139              	.LBE445:
 396:lcdlib/daisy_ILI9341.hpp ****             transport_.SendData(data, 1);
 1140              		.loc 6 396 21 view .LVU362
 1141 02ce 8DF80030 		strb	r3, [sp]
 397:lcdlib/daisy_ILI9341.hpp ****         }
 1142              		.loc 6 397 13 is_stmt 1 view .LVU363
 1143              	.LVL79:
 1144              	.LBB448:
 1145              	.LBI445:
 168:lcdlib/daisy_ILI9341.hpp ****     {
 1146              		.loc 6 168 23 view .LVU364
 1147              	.LBB447:
 170:lcdlib/daisy_ILI9341.hpp ****         return spi_.BlockingTransmit(buff, size);
 1148              		.loc 6 170 9 view .LVU365
 170:lcdlib/daisy_ILI9341.hpp ****         return spi_.BlockingTransmit(buff, size);
 1149              		.loc 6 170 23 is_stmt 0 view .LVU366
 1150 02d2 FFF7FEFF 		bl	dsy_gpio_write
 1151              	.LVL80:
 171:lcdlib/daisy_ILI9341.hpp ****     };
 1152              		.loc 6 171 9 is_stmt 1 view .LVU367
 171:lcdlib/daisy_ILI9341.hpp ****     };
 1153              		.loc 6 171 37 is_stmt 0 view .LVU368
 1154 02d6 2246     		mov	r2, r4
 1155 02d8 6946     		mov	r1, sp
 1156 02da 6423     		movs	r3, #100
 1157 02dc 2846     		mov	r0, r5
ARM GAS  /var/folders/cl/k1vt3d7567s5t107m3sv9whr0000gn/T//cclnrocj.s 			page 44


 1158 02de FFF7FEFF 		bl	_ZN5daisy9SpiHandle16BlockingTransmitEPhjm
 1159              	.LVL81:
 171:lcdlib/daisy_ILI9341.hpp ****     };
 1160              		.loc 6 171 37 view .LVU369
 1161              	.LBE447:
 1162              	.LBE448:
 1163              	.LBE444:
 401:lcdlib/daisy_ILI9341.hpp ****         {
 1164              		.loc 6 401 9 is_stmt 1 view .LVU370
 401:lcdlib/daisy_ILI9341.hpp ****         {
 1165              		.loc 6 401 9 is_stmt 0 view .LVU371
 1166 02e2 C523     		movs	r3, #197
 1167              	.LBB449:
 1168              	.LBB450:
 164:lcdlib/daisy_ILI9341.hpp ****         return spi_.BlockingTransmit(&cmd, 1);
 1169              		.loc 6 164 23 view .LVU372
 1170 02e4 3946     		mov	r1, r7
 1171 02e6 3046     		mov	r0, r6
 1172 02e8 8DF80030 		strb	r3, [sp]
 1173              	.LVL82:
 164:lcdlib/daisy_ILI9341.hpp ****         return spi_.BlockingTransmit(&cmd, 1);
 1174              		.loc 6 164 23 view .LVU373
 1175              	.LBE450:
 1176              	.LBI449:
 162:lcdlib/daisy_ILI9341.hpp ****     {
 1177              		.loc 6 162 23 is_stmt 1 view .LVU374
 1178              	.LBB451:
 164:lcdlib/daisy_ILI9341.hpp ****         return spi_.BlockingTransmit(&cmd, 1);
 1179              		.loc 6 164 9 view .LVU375
 164:lcdlib/daisy_ILI9341.hpp ****         return spi_.BlockingTransmit(&cmd, 1);
 1180              		.loc 6 164 23 is_stmt 0 view .LVU376
 1181 02ec FFF7FEFF 		bl	dsy_gpio_write
 1182              	.LVL83:
 165:lcdlib/daisy_ILI9341.hpp ****     };
 1183              		.loc 6 165 9 is_stmt 1 view .LVU377
 165:lcdlib/daisy_ILI9341.hpp ****     };
 1184              		.loc 6 165 37 is_stmt 0 view .LVU378
 1185 02f0 2246     		mov	r2, r4
 1186 02f2 6946     		mov	r1, sp
 1187 02f4 6423     		movs	r3, #100
 1188 02f6 2846     		mov	r0, r5
 1189 02f8 FFF7FEFF 		bl	_ZN5daisy9SpiHandle16BlockingTransmitEPhjm
 1190              	.LVL84:
 165:lcdlib/daisy_ILI9341.hpp ****     };
 1191              		.loc 6 165 37 view .LVU379
 1192              	.LBE451:
 1193              	.LBE449:
 402:lcdlib/daisy_ILI9341.hpp ****             uint8_t data[2] = {0x3E, 0x28};
 1194              		.loc 6 402 9 is_stmt 1 view .LVU380
 1195              	.LBB452:
 403:lcdlib/daisy_ILI9341.hpp ****             transport_.SendData(data, 2);
 1196              		.loc 6 403 13 view .LVU381
 403:lcdlib/daisy_ILI9341.hpp ****             transport_.SendData(data, 2);
 1197              		.loc 6 403 21 is_stmt 0 view .LVU382
 1198 02fc 42F63E03 		movw	r3, #10302
 1199              	.LBB453:
 1200              	.LBB454:
ARM GAS  /var/folders/cl/k1vt3d7567s5t107m3sv9whr0000gn/T//cclnrocj.s 			page 45


 170:lcdlib/daisy_ILI9341.hpp ****         return spi_.BlockingTransmit(buff, size);
 1201              		.loc 6 170 23 view .LVU383
 1202 0300 2146     		mov	r1, r4
 1203 0302 3046     		mov	r0, r6
 1204              	.LBE454:
 1205              	.LBE453:
 403:lcdlib/daisy_ILI9341.hpp ****             transport_.SendData(data, 2);
 1206              		.loc 6 403 21 view .LVU384
 1207 0304 ADF80030 		strh	r3, [sp]	@ movhi
 404:lcdlib/daisy_ILI9341.hpp ****         }
 1208              		.loc 6 404 13 is_stmt 1 view .LVU385
 1209              	.LVL85:
 1210              	.LBB456:
 1211              	.LBI453:
 168:lcdlib/daisy_ILI9341.hpp ****     {
 1212              		.loc 6 168 23 view .LVU386
 1213              	.LBB455:
 170:lcdlib/daisy_ILI9341.hpp ****         return spi_.BlockingTransmit(buff, size);
 1214              		.loc 6 170 9 view .LVU387
 170:lcdlib/daisy_ILI9341.hpp ****         return spi_.BlockingTransmit(buff, size);
 1215              		.loc 6 170 23 is_stmt 0 view .LVU388
 1216 0308 FFF7FEFF 		bl	dsy_gpio_write
 1217              	.LVL86:
 171:lcdlib/daisy_ILI9341.hpp ****     };
 1218              		.loc 6 171 9 is_stmt 1 view .LVU389
 171:lcdlib/daisy_ILI9341.hpp ****     };
 1219              		.loc 6 171 37 is_stmt 0 view .LVU390
 1220 030c 5A46     		mov	r2, fp
 1221 030e 6946     		mov	r1, sp
 1222 0310 6423     		movs	r3, #100
 1223 0312 2846     		mov	r0, r5
 1224 0314 FFF7FEFF 		bl	_ZN5daisy9SpiHandle16BlockingTransmitEPhjm
 1225              	.LVL87:
 171:lcdlib/daisy_ILI9341.hpp ****     };
 1226              		.loc 6 171 37 view .LVU391
 1227              	.LBE455:
 1228              	.LBE456:
 1229              	.LBE452:
 408:lcdlib/daisy_ILI9341.hpp ****         {
 1230              		.loc 6 408 9 is_stmt 1 view .LVU392
 408:lcdlib/daisy_ILI9341.hpp ****         {
 1231              		.loc 6 408 9 is_stmt 0 view .LVU393
 1232 0318 C723     		movs	r3, #199
 1233              	.LBB457:
 1234              	.LBB458:
 164:lcdlib/daisy_ILI9341.hpp ****         return spi_.BlockingTransmit(&cmd, 1);
 1235              		.loc 6 164 23 view .LVU394
 1236 031a 3946     		mov	r1, r7
 1237 031c 3046     		mov	r0, r6
 1238 031e 8DF80030 		strb	r3, [sp]
 1239              	.LVL88:
 164:lcdlib/daisy_ILI9341.hpp ****         return spi_.BlockingTransmit(&cmd, 1);
 1240              		.loc 6 164 23 view .LVU395
 1241              	.LBE458:
 1242              	.LBI457:
 162:lcdlib/daisy_ILI9341.hpp ****     {
 1243              		.loc 6 162 23 is_stmt 1 view .LVU396
ARM GAS  /var/folders/cl/k1vt3d7567s5t107m3sv9whr0000gn/T//cclnrocj.s 			page 46


 1244              	.LBB459:
 164:lcdlib/daisy_ILI9341.hpp ****         return spi_.BlockingTransmit(&cmd, 1);
 1245              		.loc 6 164 9 view .LVU397
 164:lcdlib/daisy_ILI9341.hpp ****         return spi_.BlockingTransmit(&cmd, 1);
 1246              		.loc 6 164 23 is_stmt 0 view .LVU398
 1247 0322 FFF7FEFF 		bl	dsy_gpio_write
 1248              	.LVL89:
 165:lcdlib/daisy_ILI9341.hpp ****     };
 1249              		.loc 6 165 9 is_stmt 1 view .LVU399
 165:lcdlib/daisy_ILI9341.hpp ****     };
 1250              		.loc 6 165 37 is_stmt 0 view .LVU400
 1251 0326 2246     		mov	r2, r4
 1252 0328 6946     		mov	r1, sp
 1253 032a 6423     		movs	r3, #100
 1254 032c 2846     		mov	r0, r5
 1255 032e FFF7FEFF 		bl	_ZN5daisy9SpiHandle16BlockingTransmitEPhjm
 1256              	.LVL90:
 165:lcdlib/daisy_ILI9341.hpp ****     };
 1257              		.loc 6 165 37 view .LVU401
 1258              	.LBE459:
 1259              	.LBE457:
 409:lcdlib/daisy_ILI9341.hpp ****             uint8_t data[1] = {0x86};
 1260              		.loc 6 409 9 is_stmt 1 view .LVU402
 1261              	.LBB460:
 410:lcdlib/daisy_ILI9341.hpp ****             transport_.SendData(data, 1);
 1262              		.loc 6 410 13 view .LVU403
 410:lcdlib/daisy_ILI9341.hpp ****             transport_.SendData(data, 1);
 1263              		.loc 6 410 21 is_stmt 0 view .LVU404
 1264 0332 8623     		movs	r3, #134
 1265              	.LBB461:
 1266              	.LBB462:
 170:lcdlib/daisy_ILI9341.hpp ****         return spi_.BlockingTransmit(buff, size);
 1267              		.loc 6 170 23 view .LVU405
 1268 0334 2146     		mov	r1, r4
 1269 0336 3046     		mov	r0, r6
 1270              	.LBE462:
 1271              	.LBE461:
 410:lcdlib/daisy_ILI9341.hpp ****             transport_.SendData(data, 1);
 1272              		.loc 6 410 21 view .LVU406
 1273 0338 8DF80030 		strb	r3, [sp]
 411:lcdlib/daisy_ILI9341.hpp ****         }
 1274              		.loc 6 411 13 is_stmt 1 view .LVU407
 1275              	.LVL91:
 1276              	.LBB464:
 1277              	.LBI461:
 168:lcdlib/daisy_ILI9341.hpp ****     {
 1278              		.loc 6 168 23 view .LVU408
 1279              	.LBB463:
 170:lcdlib/daisy_ILI9341.hpp ****         return spi_.BlockingTransmit(buff, size);
 1280              		.loc 6 170 9 view .LVU409
 170:lcdlib/daisy_ILI9341.hpp ****         return spi_.BlockingTransmit(buff, size);
 1281              		.loc 6 170 23 is_stmt 0 view .LVU410
 1282 033c FFF7FEFF 		bl	dsy_gpio_write
 1283              	.LVL92:
 171:lcdlib/daisy_ILI9341.hpp ****     };
 1284              		.loc 6 171 9 is_stmt 1 view .LVU411
 171:lcdlib/daisy_ILI9341.hpp ****     };
ARM GAS  /var/folders/cl/k1vt3d7567s5t107m3sv9whr0000gn/T//cclnrocj.s 			page 47


 1285              		.loc 6 171 37 is_stmt 0 view .LVU412
 1286 0340 2246     		mov	r2, r4
 1287 0342 6423     		movs	r3, #100
 1288 0344 6946     		mov	r1, sp
 1289 0346 2846     		mov	r0, r5
 1290 0348 FFF7FEFF 		bl	_ZN5daisy9SpiHandle16BlockingTransmitEPhjm
 1291              	.LVL93:
 171:lcdlib/daisy_ILI9341.hpp ****     };
 1292              		.loc 6 171 37 view .LVU413
 1293              	.LBE463:
 1294              	.LBE464:
 1295              	.LBE460:
 415:lcdlib/daisy_ILI9341.hpp ****         {
 1296              		.loc 6 415 9 is_stmt 1 view .LVU414
 1297              	.LBB465:
 1298              	.LBB466:
 164:lcdlib/daisy_ILI9341.hpp ****         return spi_.BlockingTransmit(&cmd, 1);
 1299              		.loc 6 164 23 is_stmt 0 view .LVU415
 1300 034c 3946     		mov	r1, r7
 1301 034e 3046     		mov	r0, r6
 1302 0350 8DF800A0 		strb	r10, [sp]
 1303              	.LVL94:
 164:lcdlib/daisy_ILI9341.hpp ****         return spi_.BlockingTransmit(&cmd, 1);
 1304              		.loc 6 164 23 view .LVU416
 1305              	.LBE466:
 1306              	.LBI465:
 162:lcdlib/daisy_ILI9341.hpp ****     {
 1307              		.loc 6 162 23 is_stmt 1 view .LVU417
 1308              	.LBB467:
 164:lcdlib/daisy_ILI9341.hpp ****         return spi_.BlockingTransmit(&cmd, 1);
 1309              		.loc 6 164 9 view .LVU418
 164:lcdlib/daisy_ILI9341.hpp ****         return spi_.BlockingTransmit(&cmd, 1);
 1310              		.loc 6 164 23 is_stmt 0 view .LVU419
 1311 0354 FFF7FEFF 		bl	dsy_gpio_write
 1312              	.LVL95:
 165:lcdlib/daisy_ILI9341.hpp ****     };
 1313              		.loc 6 165 9 is_stmt 1 view .LVU420
 165:lcdlib/daisy_ILI9341.hpp ****     };
 1314              		.loc 6 165 37 is_stmt 0 view .LVU421
 1315 0358 2246     		mov	r2, r4
 1316 035a 6946     		mov	r1, sp
 1317 035c 6423     		movs	r3, #100
 1318 035e 2846     		mov	r0, r5
 1319 0360 FFF7FEFF 		bl	_ZN5daisy9SpiHandle16BlockingTransmitEPhjm
 1320              	.LVL96:
 165:lcdlib/daisy_ILI9341.hpp ****     };
 1321              		.loc 6 165 37 view .LVU422
 1322              	.LBE467:
 1323              	.LBE465:
 416:lcdlib/daisy_ILI9341.hpp ****             uint8_t data[1] = {0x48};
 1324              		.loc 6 416 9 is_stmt 1 view .LVU423
 1325              	.LBB468:
 417:lcdlib/daisy_ILI9341.hpp ****             transport_.SendData(data, 1);
 1326              		.loc 6 417 13 view .LVU424
 417:lcdlib/daisy_ILI9341.hpp ****             transport_.SendData(data, 1);
 1327              		.loc 6 417 21 is_stmt 0 view .LVU425
 1328 0364 4823     		movs	r3, #72
ARM GAS  /var/folders/cl/k1vt3d7567s5t107m3sv9whr0000gn/T//cclnrocj.s 			page 48


 1329              	.LBB469:
 1330              	.LBB470:
 170:lcdlib/daisy_ILI9341.hpp ****         return spi_.BlockingTransmit(buff, size);
 1331              		.loc 6 170 23 view .LVU426
 1332 0366 2146     		mov	r1, r4
 1333 0368 3046     		mov	r0, r6
 1334              	.LBE470:
 1335              	.LBE469:
 417:lcdlib/daisy_ILI9341.hpp ****             transport_.SendData(data, 1);
 1336              		.loc 6 417 21 view .LVU427
 1337 036a 8DF80030 		strb	r3, [sp]
 418:lcdlib/daisy_ILI9341.hpp ****         }
 1338              		.loc 6 418 13 is_stmt 1 view .LVU428
 1339              	.LVL97:
 1340              	.LBB472:
 1341              	.LBI469:
 168:lcdlib/daisy_ILI9341.hpp ****     {
 1342              		.loc 6 168 23 view .LVU429
 1343              	.LBB471:
 170:lcdlib/daisy_ILI9341.hpp ****         return spi_.BlockingTransmit(buff, size);
 1344              		.loc 6 170 9 view .LVU430
 170:lcdlib/daisy_ILI9341.hpp ****         return spi_.BlockingTransmit(buff, size);
 1345              		.loc 6 170 23 is_stmt 0 view .LVU431
 1346 036e FFF7FEFF 		bl	dsy_gpio_write
 1347              	.LVL98:
 171:lcdlib/daisy_ILI9341.hpp ****     };
 1348              		.loc 6 171 9 is_stmt 1 view .LVU432
 171:lcdlib/daisy_ILI9341.hpp ****     };
 1349              		.loc 6 171 37 is_stmt 0 view .LVU433
 1350 0372 2246     		mov	r2, r4
 1351 0374 6946     		mov	r1, sp
 1352 0376 6423     		movs	r3, #100
 1353 0378 2846     		mov	r0, r5
 1354 037a FFF7FEFF 		bl	_ZN5daisy9SpiHandle16BlockingTransmitEPhjm
 1355              	.LVL99:
 171:lcdlib/daisy_ILI9341.hpp ****     };
 1356              		.loc 6 171 37 view .LVU434
 1357              	.LBE471:
 1358              	.LBE472:
 1359              	.LBE468:
 422:lcdlib/daisy_ILI9341.hpp ****         {
 1360              		.loc 6 422 9 is_stmt 1 view .LVU435
 422:lcdlib/daisy_ILI9341.hpp ****         {
 1361              		.loc 6 422 9 is_stmt 0 view .LVU436
 1362 037e 3A23     		movs	r3, #58
 1363              	.LBB473:
 1364              	.LBB474:
 164:lcdlib/daisy_ILI9341.hpp ****         return spi_.BlockingTransmit(&cmd, 1);
 1365              		.loc 6 164 23 view .LVU437
 1366 0380 3946     		mov	r1, r7
 1367 0382 3046     		mov	r0, r6
 1368 0384 8DF80030 		strb	r3, [sp]
 1369              	.LVL100:
 164:lcdlib/daisy_ILI9341.hpp ****         return spi_.BlockingTransmit(&cmd, 1);
 1370              		.loc 6 164 23 view .LVU438
 1371              	.LBE474:
 1372              	.LBI473:
ARM GAS  /var/folders/cl/k1vt3d7567s5t107m3sv9whr0000gn/T//cclnrocj.s 			page 49


 162:lcdlib/daisy_ILI9341.hpp ****     {
 1373              		.loc 6 162 23 is_stmt 1 view .LVU439
 1374              	.LBB475:
 164:lcdlib/daisy_ILI9341.hpp ****         return spi_.BlockingTransmit(&cmd, 1);
 1375              		.loc 6 164 9 view .LVU440
 164:lcdlib/daisy_ILI9341.hpp ****         return spi_.BlockingTransmit(&cmd, 1);
 1376              		.loc 6 164 23 is_stmt 0 view .LVU441
 1377 0388 FFF7FEFF 		bl	dsy_gpio_write
 1378              	.LVL101:
 165:lcdlib/daisy_ILI9341.hpp ****     };
 1379              		.loc 6 165 9 is_stmt 1 view .LVU442
 165:lcdlib/daisy_ILI9341.hpp ****     };
 1380              		.loc 6 165 37 is_stmt 0 view .LVU443
 1381 038c 2246     		mov	r2, r4
 1382 038e 6946     		mov	r1, sp
 1383 0390 6423     		movs	r3, #100
 1384 0392 2846     		mov	r0, r5
 1385 0394 FFF7FEFF 		bl	_ZN5daisy9SpiHandle16BlockingTransmitEPhjm
 1386              	.LVL102:
 165:lcdlib/daisy_ILI9341.hpp ****     };
 1387              		.loc 6 165 37 view .LVU444
 1388              	.LBE475:
 1389              	.LBE473:
 423:lcdlib/daisy_ILI9341.hpp ****             uint8_t data[1] = {0x55};
 1390              		.loc 6 423 9 is_stmt 1 view .LVU445
 1391              	.LBB476:
 424:lcdlib/daisy_ILI9341.hpp ****             transport_.SendData(data, 1);
 1392              		.loc 6 424 13 view .LVU446
 424:lcdlib/daisy_ILI9341.hpp ****             transport_.SendData(data, 1);
 1393              		.loc 6 424 21 is_stmt 0 view .LVU447
 1394 0398 5523     		movs	r3, #85
 1395              	.LBB477:
 1396              	.LBB478:
 170:lcdlib/daisy_ILI9341.hpp ****         return spi_.BlockingTransmit(buff, size);
 1397              		.loc 6 170 23 view .LVU448
 1398 039a 2146     		mov	r1, r4
 1399 039c 3046     		mov	r0, r6
 1400              	.LBE478:
 1401              	.LBE477:
 424:lcdlib/daisy_ILI9341.hpp ****             transport_.SendData(data, 1);
 1402              		.loc 6 424 21 view .LVU449
 1403 039e 8DF80030 		strb	r3, [sp]
 425:lcdlib/daisy_ILI9341.hpp ****         }
 1404              		.loc 6 425 13 is_stmt 1 view .LVU450
 1405              	.LVL103:
 1406              	.LBB480:
 1407              	.LBI477:
 168:lcdlib/daisy_ILI9341.hpp ****     {
 1408              		.loc 6 168 23 view .LVU451
 1409              	.LBB479:
 170:lcdlib/daisy_ILI9341.hpp ****         return spi_.BlockingTransmit(buff, size);
 1410              		.loc 6 170 9 view .LVU452
 170:lcdlib/daisy_ILI9341.hpp ****         return spi_.BlockingTransmit(buff, size);
 1411              		.loc 6 170 23 is_stmt 0 view .LVU453
 1412 03a2 FFF7FEFF 		bl	dsy_gpio_write
 1413              	.LVL104:
 171:lcdlib/daisy_ILI9341.hpp ****     };
ARM GAS  /var/folders/cl/k1vt3d7567s5t107m3sv9whr0000gn/T//cclnrocj.s 			page 50


 1414              		.loc 6 171 9 is_stmt 1 view .LVU454
 171:lcdlib/daisy_ILI9341.hpp ****     };
 1415              		.loc 6 171 37 is_stmt 0 view .LVU455
 1416 03a6 2246     		mov	r2, r4
 1417 03a8 6946     		mov	r1, sp
 1418 03aa 6423     		movs	r3, #100
 1419 03ac 2846     		mov	r0, r5
 1420 03ae FFF7FEFF 		bl	_ZN5daisy9SpiHandle16BlockingTransmitEPhjm
 1421              	.LVL105:
 171:lcdlib/daisy_ILI9341.hpp ****     };
 1422              		.loc 6 171 37 view .LVU456
 1423              	.LBE479:
 1424              	.LBE480:
 1425              	.LBE476:
 429:lcdlib/daisy_ILI9341.hpp ****         {
 1426              		.loc 6 429 9 is_stmt 1 view .LVU457
 429:lcdlib/daisy_ILI9341.hpp ****         {
 1427              		.loc 6 429 9 is_stmt 0 view .LVU458
 1428 03b2 B123     		movs	r3, #177
 1429              	.LBB481:
 1430              	.LBB482:
 164:lcdlib/daisy_ILI9341.hpp ****         return spi_.BlockingTransmit(&cmd, 1);
 1431              		.loc 6 164 23 view .LVU459
 1432 03b4 3946     		mov	r1, r7
 1433 03b6 3046     		mov	r0, r6
 1434 03b8 8DF80030 		strb	r3, [sp]
 1435              	.LVL106:
 164:lcdlib/daisy_ILI9341.hpp ****         return spi_.BlockingTransmit(&cmd, 1);
 1436              		.loc 6 164 23 view .LVU460
 1437              	.LBE482:
 1438              	.LBI481:
 162:lcdlib/daisy_ILI9341.hpp ****     {
 1439              		.loc 6 162 23 is_stmt 1 view .LVU461
 1440              	.LBB483:
 164:lcdlib/daisy_ILI9341.hpp ****         return spi_.BlockingTransmit(&cmd, 1);
 1441              		.loc 6 164 9 view .LVU462
 164:lcdlib/daisy_ILI9341.hpp ****         return spi_.BlockingTransmit(&cmd, 1);
 1442              		.loc 6 164 23 is_stmt 0 view .LVU463
 1443 03bc FFF7FEFF 		bl	dsy_gpio_write
 1444              	.LVL107:
 165:lcdlib/daisy_ILI9341.hpp ****     };
 1445              		.loc 6 165 9 is_stmt 1 view .LVU464
 165:lcdlib/daisy_ILI9341.hpp ****     };
 1446              		.loc 6 165 37 is_stmt 0 view .LVU465
 1447 03c0 2246     		mov	r2, r4
 1448 03c2 6946     		mov	r1, sp
 1449 03c4 6423     		movs	r3, #100
 1450 03c6 2846     		mov	r0, r5
 1451 03c8 FFF7FEFF 		bl	_ZN5daisy9SpiHandle16BlockingTransmitEPhjm
 1452              	.LVL108:
 165:lcdlib/daisy_ILI9341.hpp ****     };
 1453              		.loc 6 165 37 view .LVU466
 1454              	.LBE483:
 1455              	.LBE481:
 430:lcdlib/daisy_ILI9341.hpp ****             uint8_t data[2] = {0x00, 0x18};
 1456              		.loc 6 430 9 is_stmt 1 view .LVU467
 1457              	.LBB484:
ARM GAS  /var/folders/cl/k1vt3d7567s5t107m3sv9whr0000gn/T//cclnrocj.s 			page 51


 431:lcdlib/daisy_ILI9341.hpp ****             transport_.SendData(data, 2);
 1458              		.loc 6 431 13 view .LVU468
 431:lcdlib/daisy_ILI9341.hpp ****             transport_.SendData(data, 2);
 1459              		.loc 6 431 21 is_stmt 0 view .LVU469
 1460 03cc 4FF4C053 		mov	r3, #6144
 1461              	.LBB485:
 1462              	.LBB486:
 170:lcdlib/daisy_ILI9341.hpp ****         return spi_.BlockingTransmit(buff, size);
 1463              		.loc 6 170 23 view .LVU470
 1464 03d0 2146     		mov	r1, r4
 1465 03d2 3046     		mov	r0, r6
 1466              	.LBE486:
 1467              	.LBE485:
 431:lcdlib/daisy_ILI9341.hpp ****             transport_.SendData(data, 2);
 1468              		.loc 6 431 21 view .LVU471
 1469 03d4 ADF80030 		strh	r3, [sp]	@ movhi
 432:lcdlib/daisy_ILI9341.hpp ****         }
 1470              		.loc 6 432 13 is_stmt 1 view .LVU472
 1471              	.LVL109:
 1472              	.LBB488:
 1473              	.LBI485:
 168:lcdlib/daisy_ILI9341.hpp ****     {
 1474              		.loc 6 168 23 view .LVU473
 1475              	.LBB487:
 170:lcdlib/daisy_ILI9341.hpp ****         return spi_.BlockingTransmit(buff, size);
 1476              		.loc 6 170 9 view .LVU474
 170:lcdlib/daisy_ILI9341.hpp ****         return spi_.BlockingTransmit(buff, size);
 1477              		.loc 6 170 23 is_stmt 0 view .LVU475
 1478 03d8 FFF7FEFF 		bl	dsy_gpio_write
 1479              	.LVL110:
 171:lcdlib/daisy_ILI9341.hpp ****     };
 1480              		.loc 6 171 9 is_stmt 1 view .LVU476
 171:lcdlib/daisy_ILI9341.hpp ****     };
 1481              		.loc 6 171 37 is_stmt 0 view .LVU477
 1482 03dc 5A46     		mov	r2, fp
 1483 03de 6946     		mov	r1, sp
 1484 03e0 6423     		movs	r3, #100
 1485 03e2 2846     		mov	r0, r5
 1486 03e4 FFF7FEFF 		bl	_ZN5daisy9SpiHandle16BlockingTransmitEPhjm
 1487              	.LVL111:
 171:lcdlib/daisy_ILI9341.hpp ****     };
 1488              		.loc 6 171 37 view .LVU478
 1489              	.LBE487:
 1490              	.LBE488:
 1491              	.LBE484:
 436:lcdlib/daisy_ILI9341.hpp ****         {
 1492              		.loc 6 436 9 is_stmt 1 view .LVU479
 436:lcdlib/daisy_ILI9341.hpp ****         {
 1493              		.loc 6 436 9 is_stmt 0 view .LVU480
 1494 03e8 B623     		movs	r3, #182
 1495              	.LBB489:
 1496              	.LBB490:
 164:lcdlib/daisy_ILI9341.hpp ****         return spi_.BlockingTransmit(&cmd, 1);
 1497              		.loc 6 164 23 view .LVU481
 1498 03ea 3946     		mov	r1, r7
 1499 03ec 3046     		mov	r0, r6
 1500 03ee 8DF80030 		strb	r3, [sp]
ARM GAS  /var/folders/cl/k1vt3d7567s5t107m3sv9whr0000gn/T//cclnrocj.s 			page 52


 1501              	.LVL112:
 164:lcdlib/daisy_ILI9341.hpp ****         return spi_.BlockingTransmit(&cmd, 1);
 1502              		.loc 6 164 23 view .LVU482
 1503              	.LBE490:
 1504              	.LBI489:
 162:lcdlib/daisy_ILI9341.hpp ****     {
 1505              		.loc 6 162 23 is_stmt 1 view .LVU483
 1506              	.LBB491:
 164:lcdlib/daisy_ILI9341.hpp ****         return spi_.BlockingTransmit(&cmd, 1);
 1507              		.loc 6 164 9 view .LVU484
 164:lcdlib/daisy_ILI9341.hpp ****         return spi_.BlockingTransmit(&cmd, 1);
 1508              		.loc 6 164 23 is_stmt 0 view .LVU485
 1509 03f2 FFF7FEFF 		bl	dsy_gpio_write
 1510              	.LVL113:
 165:lcdlib/daisy_ILI9341.hpp ****     };
 1511              		.loc 6 165 9 is_stmt 1 view .LVU486
 165:lcdlib/daisy_ILI9341.hpp ****     };
 1512              		.loc 6 165 37 is_stmt 0 view .LVU487
 1513 03f6 2246     		mov	r2, r4
 1514 03f8 6946     		mov	r1, sp
 1515 03fa 6423     		movs	r3, #100
 1516 03fc 2846     		mov	r0, r5
 1517 03fe FFF7FEFF 		bl	_ZN5daisy9SpiHandle16BlockingTransmitEPhjm
 1518              	.LVL114:
 165:lcdlib/daisy_ILI9341.hpp ****     };
 1519              		.loc 6 165 37 view .LVU488
 1520              	.LBE491:
 1521              	.LBE489:
 437:lcdlib/daisy_ILI9341.hpp ****             uint8_t data[3] = {0x08, 0x82, 0x27};
 1522              		.loc 6 437 9 is_stmt 1 view .LVU489
 1523              	.LBB492:
 438:lcdlib/daisy_ILI9341.hpp ****             transport_.SendData(data, 3);
 1524              		.loc 6 438 13 view .LVU490
 438:lcdlib/daisy_ILI9341.hpp ****             transport_.SendData(data, 3);
 1525              		.loc 6 438 21 is_stmt 0 view .LVU491
 1526 0402 254B     		ldr	r3, .L15+36
 1527              	.LBB493:
 1528              	.LBB494:
 170:lcdlib/daisy_ILI9341.hpp ****         return spi_.BlockingTransmit(buff, size);
 1529              		.loc 6 170 23 view .LVU492
 1530 0404 2146     		mov	r1, r4
 1531 0406 3046     		mov	r0, r6
 1532              	.LBE494:
 1533              	.LBE493:
 438:lcdlib/daisy_ILI9341.hpp ****             transport_.SendData(data, 3);
 1534              		.loc 6 438 21 view .LVU493
 1535 0408 1B68     		ldr	r3, [r3]
 1536 040a ADF80030 		strh	r3, [sp]	@ movhi
 1537 040e 1B0C     		lsrs	r3, r3, #16
 1538 0410 8DF80230 		strb	r3, [sp, #2]
 439:lcdlib/daisy_ILI9341.hpp ****         }
 1539              		.loc 6 439 13 is_stmt 1 view .LVU494
 1540              	.LVL115:
 1541              	.LBB496:
 1542              	.LBI493:
 168:lcdlib/daisy_ILI9341.hpp ****     {
 1543              		.loc 6 168 23 view .LVU495
ARM GAS  /var/folders/cl/k1vt3d7567s5t107m3sv9whr0000gn/T//cclnrocj.s 			page 53


 1544              	.LBB495:
 170:lcdlib/daisy_ILI9341.hpp ****         return spi_.BlockingTransmit(buff, size);
 1545              		.loc 6 170 9 view .LVU496
 170:lcdlib/daisy_ILI9341.hpp ****         return spi_.BlockingTransmit(buff, size);
 1546              		.loc 6 170 23 is_stmt 0 view .LVU497
 1547 0414 FFF7FEFF 		bl	dsy_gpio_write
 1548              	.LVL116:
 171:lcdlib/daisy_ILI9341.hpp ****     };
 1549              		.loc 6 171 9 is_stmt 1 view .LVU498
 171:lcdlib/daisy_ILI9341.hpp ****     };
 1550              		.loc 6 171 37 is_stmt 0 view .LVU499
 1551 0418 0322     		movs	r2, #3
 1552 041a 6946     		mov	r1, sp
 1553 041c 6423     		movs	r3, #100
 1554 041e 2846     		mov	r0, r5
 1555 0420 FFF7FEFF 		bl	_ZN5daisy9SpiHandle16BlockingTransmitEPhjm
 1556              	.LVL117:
 171:lcdlib/daisy_ILI9341.hpp ****     };
 1557              		.loc 6 171 37 view .LVU500
 1558              	.LBE495:
 1559              	.LBE496:
 1560              	.LBE492:
 443:lcdlib/daisy_ILI9341.hpp ****         {
 1561              		.loc 6 443 9 is_stmt 1 view .LVU501
 443:lcdlib/daisy_ILI9341.hpp ****         {
 1562              		.loc 6 443 9 is_stmt 0 view .LVU502
 1563 0424 F223     		movs	r3, #242
 1564              	.LBB497:
 1565              	.LBB498:
 164:lcdlib/daisy_ILI9341.hpp ****         return spi_.BlockingTransmit(&cmd, 1);
 1566              		.loc 6 164 23 view .LVU503
 1567 0426 3946     		mov	r1, r7
 1568 0428 3046     		mov	r0, r6
 1569 042a 8DF80030 		strb	r3, [sp]
 1570              	.LVL118:
 164:lcdlib/daisy_ILI9341.hpp ****         return spi_.BlockingTransmit(&cmd, 1);
 1571              		.loc 6 164 23 view .LVU504
 1572              	.LBE498:
 1573              	.LBI497:
 162:lcdlib/daisy_ILI9341.hpp ****     {
 1574              		.loc 6 162 23 is_stmt 1 view .LVU505
 1575              	.LBB499:
 164:lcdlib/daisy_ILI9341.hpp ****         return spi_.BlockingTransmit(&cmd, 1);
 1576              		.loc 6 164 9 view .LVU506
 164:lcdlib/daisy_ILI9341.hpp ****         return spi_.BlockingTransmit(&cmd, 1);
 1577              		.loc 6 164 23 is_stmt 0 view .LVU507
 1578 042e FFF7FEFF 		bl	dsy_gpio_write
 1579              	.LVL119:
 165:lcdlib/daisy_ILI9341.hpp ****     };
 1580              		.loc 6 165 9 is_stmt 1 view .LVU508
 165:lcdlib/daisy_ILI9341.hpp ****     };
 1581              		.loc 6 165 37 is_stmt 0 view .LVU509
 1582 0432 2246     		mov	r2, r4
 1583 0434 6423     		movs	r3, #100
 1584 0436 6946     		mov	r1, sp
 1585 0438 2846     		mov	r0, r5
 1586 043a FFF7FEFF 		bl	_ZN5daisy9SpiHandle16BlockingTransmitEPhjm
ARM GAS  /var/folders/cl/k1vt3d7567s5t107m3sv9whr0000gn/T//cclnrocj.s 			page 54


 1587              	.LVL120:
 165:lcdlib/daisy_ILI9341.hpp ****     };
 1588              		.loc 6 165 37 view .LVU510
 1589              	.LBE499:
 1590              	.LBE497:
 444:lcdlib/daisy_ILI9341.hpp ****             uint8_t data[1] = {0x00};
 1591              		.loc 6 444 9 is_stmt 1 view .LVU511
 1592              	.LBB500:
 445:lcdlib/daisy_ILI9341.hpp ****             transport_.SendData(data, 1);
 1593              		.loc 6 445 13 view .LVU512
 1594              	.LBB501:
 1595              	.LBB502:
 170:lcdlib/daisy_ILI9341.hpp ****         return spi_.BlockingTransmit(buff, size);
 1596              		.loc 6 170 23 is_stmt 0 view .LVU513
 1597 043e 2146     		mov	r1, r4
 1598 0440 3046     		mov	r0, r6
 1599              	.LBE502:
 1600              	.LBE501:
 445:lcdlib/daisy_ILI9341.hpp ****             transport_.SendData(data, 1);
 1601              		.loc 6 445 21 view .LVU514
 1602 0442 8DF80070 		strb	r7, [sp]
 446:lcdlib/daisy_ILI9341.hpp ****         }
 1603              		.loc 6 446 13 is_stmt 1 view .LVU515
 1604              	.LVL121:
 1605              	.LBB504:
 1606              	.LBI501:
 168:lcdlib/daisy_ILI9341.hpp ****     {
 1607              		.loc 6 168 23 view .LVU516
 1608              	.LBB503:
 170:lcdlib/daisy_ILI9341.hpp ****         return spi_.BlockingTransmit(buff, size);
 1609              		.loc 6 170 9 view .LVU517
 170:lcdlib/daisy_ILI9341.hpp ****         return spi_.BlockingTransmit(buff, size);
 1610              		.loc 6 170 23 is_stmt 0 view .LVU518
 1611 0446 FFF7FEFF 		bl	dsy_gpio_write
 1612              	.LVL122:
 171:lcdlib/daisy_ILI9341.hpp ****     };
 1613              		.loc 6 171 9 is_stmt 1 view .LVU519
 171:lcdlib/daisy_ILI9341.hpp ****     };
 1614              		.loc 6 171 37 is_stmt 0 view .LVU520
 1615 044a 2246     		mov	r2, r4
 1616 044c 6946     		mov	r1, sp
 1617 044e 6423     		movs	r3, #100
 1618 0450 2846     		mov	r0, r5
 1619 0452 FFF7FEFF 		bl	_ZN5daisy9SpiHandle16BlockingTransmitEPhjm
 1620              	.LVL123:
 171:lcdlib/daisy_ILI9341.hpp ****     };
 1621              		.loc 6 171 37 view .LVU521
 1622              	.LBE503:
 1623              	.LBE504:
 1624              	.LBE500:
 450:lcdlib/daisy_ILI9341.hpp ****         {
 1625              		.loc 6 450 9 is_stmt 1 view .LVU522
 450:lcdlib/daisy_ILI9341.hpp ****         {
 1626              		.loc 6 450 9 is_stmt 0 view .LVU523
 1627 0456 2623     		movs	r3, #38
 1628              	.LBB505:
 1629              	.LBB506:
ARM GAS  /var/folders/cl/k1vt3d7567s5t107m3sv9whr0000gn/T//cclnrocj.s 			page 55


 164:lcdlib/daisy_ILI9341.hpp ****         return spi_.BlockingTransmit(&cmd, 1);
 1630              		.loc 6 164 23 view .LVU524
 1631 0458 3946     		mov	r1, r7
 1632 045a 3046     		mov	r0, r6
 1633 045c 8DF80030 		strb	r3, [sp]
 1634              	.LVL124:
 164:lcdlib/daisy_ILI9341.hpp ****         return spi_.BlockingTransmit(&cmd, 1);
 1635              		.loc 6 164 23 view .LVU525
 1636              	.LBE506:
 1637              	.LBI505:
 162:lcdlib/daisy_ILI9341.hpp ****     {
 1638              		.loc 6 162 23 is_stmt 1 view .LVU526
 1639              	.LBB507:
 164:lcdlib/daisy_ILI9341.hpp ****         return spi_.BlockingTransmit(&cmd, 1);
 1640              		.loc 6 164 9 view .LVU527
 164:lcdlib/daisy_ILI9341.hpp ****         return spi_.BlockingTransmit(&cmd, 1);
 1641              		.loc 6 164 23 is_stmt 0 view .LVU528
 1642 0460 FFF7FEFF 		bl	dsy_gpio_write
 1643              	.LVL125:
 165:lcdlib/daisy_ILI9341.hpp ****     };
 1644              		.loc 6 165 9 is_stmt 1 view .LVU529
 165:lcdlib/daisy_ILI9341.hpp ****     };
 1645              		.loc 6 165 37 is_stmt 0 view .LVU530
 1646 0464 2246     		mov	r2, r4
 1647 0466 6423     		movs	r3, #100
 1648 0468 6946     		mov	r1, sp
 1649 046a 2846     		mov	r0, r5
 1650 046c FFF7FEFF 		bl	_ZN5daisy9SpiHandle16BlockingTransmitEPhjm
 1651              	.LVL126:
 1652 0470 18E0     		b	.L16
 1653              	.L17:
 1654 0472 00BF     		.align	2
 1655              	.L15:
 1656 0474 0000FFFF 		.word	-65536
 1657 0478 FF5AEB18 		.word	418077439
 1658 047c FD76E0FF 		.word	-2066691
 1659 0480 E1F98048 		.word	1216412129
 1660 0484 E149E0FB 		.word	-69187103
 1661 0488 E73FE001 		.word	31473639
 1662 048c 718C694A 		.word	1248431217
 1663 0490 4001F000 		.word	15728960
 1664 0494 64031281 		.word	-2129525916
 1665 0498 00000000 		.word	.LC6
 1666 049c 00000000 		.word	.LANCHOR0
 1667 04a0 652975AD 		.word	-1384830619
 1668              	.L16:
 1669              	.LVL127:
 165:lcdlib/daisy_ILI9341.hpp ****     };
 1670              		.loc 6 165 37 view .LVU531
 1671              	.LBE507:
 1672              	.LBE505:
 451:lcdlib/daisy_ILI9341.hpp ****             uint8_t data[1] = {0x01};
 1673              		.loc 6 451 9 is_stmt 1 view .LVU532
 1674              	.LBB508:
 452:lcdlib/daisy_ILI9341.hpp ****             transport_.SendData(data, 1);
 1675              		.loc 6 452 13 view .LVU533
 1676              	.LBB509:
ARM GAS  /var/folders/cl/k1vt3d7567s5t107m3sv9whr0000gn/T//cclnrocj.s 			page 56


 1677              	.LBB510:
 170:lcdlib/daisy_ILI9341.hpp ****         return spi_.BlockingTransmit(buff, size);
 1678              		.loc 6 170 23 is_stmt 0 view .LVU534
 1679 04a4 2146     		mov	r1, r4
 1680 04a6 3046     		mov	r0, r6
 1681              	.LBE510:
 1682              	.LBE509:
 452:lcdlib/daisy_ILI9341.hpp ****             transport_.SendData(data, 1);
 1683              		.loc 6 452 21 view .LVU535
 1684 04a8 8DF80040 		strb	r4, [sp]
 453:lcdlib/daisy_ILI9341.hpp ****         }
 1685              		.loc 6 453 13 is_stmt 1 view .LVU536
 1686              	.LVL128:
 1687              	.LBB512:
 1688              	.LBI509:
 168:lcdlib/daisy_ILI9341.hpp ****     {
 1689              		.loc 6 168 23 view .LVU537
 1690              	.LBB511:
 170:lcdlib/daisy_ILI9341.hpp ****         return spi_.BlockingTransmit(buff, size);
 1691              		.loc 6 170 9 view .LVU538
 170:lcdlib/daisy_ILI9341.hpp ****         return spi_.BlockingTransmit(buff, size);
 1692              		.loc 6 170 23 is_stmt 0 view .LVU539
 1693 04ac FFF7FEFF 		bl	dsy_gpio_write
 1694              	.LVL129:
 171:lcdlib/daisy_ILI9341.hpp ****     };
 1695              		.loc 6 171 9 is_stmt 1 view .LVU540
 171:lcdlib/daisy_ILI9341.hpp ****     };
 1696              		.loc 6 171 37 is_stmt 0 view .LVU541
 1697 04b0 2246     		mov	r2, r4
 1698 04b2 6946     		mov	r1, sp
 1699 04b4 6423     		movs	r3, #100
 1700 04b6 2846     		mov	r0, r5
 1701 04b8 FFF7FEFF 		bl	_ZN5daisy9SpiHandle16BlockingTransmitEPhjm
 1702              	.LVL130:
 171:lcdlib/daisy_ILI9341.hpp ****     };
 1703              		.loc 6 171 37 view .LVU542
 1704              	.LBE511:
 1705              	.LBE512:
 1706              	.LBE508:
 457:lcdlib/daisy_ILI9341.hpp ****         {
 1707              		.loc 6 457 9 is_stmt 1 view .LVU543
 457:lcdlib/daisy_ILI9341.hpp ****         {
 1708              		.loc 6 457 9 is_stmt 0 view .LVU544
 1709 04bc E023     		movs	r3, #224
 1710              	.LBB513:
 1711              	.LBB514:
 164:lcdlib/daisy_ILI9341.hpp ****         return spi_.BlockingTransmit(&cmd, 1);
 1712              		.loc 6 164 23 view .LVU545
 1713 04be 3946     		mov	r1, r7
 1714 04c0 3046     		mov	r0, r6
 1715 04c2 8DF80030 		strb	r3, [sp]
 1716              	.LVL131:
 164:lcdlib/daisy_ILI9341.hpp ****         return spi_.BlockingTransmit(&cmd, 1);
 1717              		.loc 6 164 23 view .LVU546
 1718              	.LBE514:
 1719              	.LBI513:
 162:lcdlib/daisy_ILI9341.hpp ****     {
ARM GAS  /var/folders/cl/k1vt3d7567s5t107m3sv9whr0000gn/T//cclnrocj.s 			page 57


 1720              		.loc 6 162 23 is_stmt 1 view .LVU547
 1721              	.LBB515:
 164:lcdlib/daisy_ILI9341.hpp ****         return spi_.BlockingTransmit(&cmd, 1);
 1722              		.loc 6 164 9 view .LVU548
 164:lcdlib/daisy_ILI9341.hpp ****         return spi_.BlockingTransmit(&cmd, 1);
 1723              		.loc 6 164 23 is_stmt 0 view .LVU549
 1724 04c6 FFF7FEFF 		bl	dsy_gpio_write
 1725              	.LVL132:
 165:lcdlib/daisy_ILI9341.hpp ****     };
 1726              		.loc 6 165 9 is_stmt 1 view .LVU550
 165:lcdlib/daisy_ILI9341.hpp ****     };
 1727              		.loc 6 165 37 is_stmt 0 view .LVU551
 1728 04ca 2246     		mov	r2, r4
 1729 04cc 6946     		mov	r1, sp
 1730 04ce 6423     		movs	r3, #100
 1731 04d0 2846     		mov	r0, r5
 1732 04d2 FFF7FEFF 		bl	_ZN5daisy9SpiHandle16BlockingTransmitEPhjm
 1733              	.LVL133:
 165:lcdlib/daisy_ILI9341.hpp ****     };
 1734              		.loc 6 165 37 view .LVU552
 1735              	.LBE515:
 1736              	.LBE513:
 458:lcdlib/daisy_ILI9341.hpp ****             uint8_t data[15] = {0x0F,
 1737              		.loc 6 458 9 is_stmt 1 view .LVU553
 1738              	.LBB516:
 459:lcdlib/daisy_ILI9341.hpp ****                                 0x31,
 1739              		.loc 6 459 13 view .LVU554
 459:lcdlib/daisy_ILI9341.hpp ****                                 0x31,
 1740              		.loc 6 459 21 is_stmt 0 view .LVU555
 1741 04d6 394B     		ldr	r3, .L18
 1742 04d8 EC46     		mov	ip, sp
 1743 04da 0FCB     		ldm	r3, {r0, r1, r2, r3}
 1744 04dc ACE80700 		stmia	ip!, {r0, r1, r2}
 1745 04e0 2CF8023B 		strh	r3, [ip], #2	@ movhi
 1746 04e4 1B0C     		lsrs	r3, r3, #16
 1747              	.LBB517:
 1748              	.LBB518:
 170:lcdlib/daisy_ILI9341.hpp ****         return spi_.BlockingTransmit(buff, size);
 1749              		.loc 6 170 23 view .LVU556
 1750 04e6 2146     		mov	r1, r4
 1751 04e8 3046     		mov	r0, r6
 1752              	.LBE518:
 1753              	.LBE517:
 459:lcdlib/daisy_ILI9341.hpp ****                                 0x31,
 1754              		.loc 6 459 21 view .LVU557
 1755 04ea 8CF80030 		strb	r3, [ip]
 474:lcdlib/daisy_ILI9341.hpp ****         }
 1756              		.loc 6 474 13 is_stmt 1 view .LVU558
 1757              	.LVL134:
 1758              	.LBB520:
 1759              	.LBI517:
 168:lcdlib/daisy_ILI9341.hpp ****     {
 1760              		.loc 6 168 23 view .LVU559
 1761              	.LBB519:
 170:lcdlib/daisy_ILI9341.hpp ****         return spi_.BlockingTransmit(buff, size);
 1762              		.loc 6 170 9 view .LVU560
 170:lcdlib/daisy_ILI9341.hpp ****         return spi_.BlockingTransmit(buff, size);
ARM GAS  /var/folders/cl/k1vt3d7567s5t107m3sv9whr0000gn/T//cclnrocj.s 			page 58


 1763              		.loc 6 170 23 is_stmt 0 view .LVU561
 1764 04ee FFF7FEFF 		bl	dsy_gpio_write
 1765              	.LVL135:
 171:lcdlib/daisy_ILI9341.hpp ****     };
 1766              		.loc 6 171 9 is_stmt 1 view .LVU562
 171:lcdlib/daisy_ILI9341.hpp ****     };
 1767              		.loc 6 171 37 is_stmt 0 view .LVU563
 1768 04f2 0F22     		movs	r2, #15
 1769 04f4 6946     		mov	r1, sp
 1770 04f6 6423     		movs	r3, #100
 1771 04f8 2846     		mov	r0, r5
 1772 04fa FFF7FEFF 		bl	_ZN5daisy9SpiHandle16BlockingTransmitEPhjm
 1773              	.LVL136:
 171:lcdlib/daisy_ILI9341.hpp ****     };
 1774              		.loc 6 171 37 view .LVU564
 1775              	.LBE519:
 1776              	.LBE520:
 1777              	.LBE516:
 478:lcdlib/daisy_ILI9341.hpp ****         {
 1778              		.loc 6 478 9 is_stmt 1 view .LVU565
 478:lcdlib/daisy_ILI9341.hpp ****         {
 1779              		.loc 6 478 9 is_stmt 0 view .LVU566
 1780 04fe E123     		movs	r3, #225
 1781              	.LBB521:
 1782              	.LBB522:
 164:lcdlib/daisy_ILI9341.hpp ****         return spi_.BlockingTransmit(&cmd, 1);
 1783              		.loc 6 164 23 view .LVU567
 1784 0500 3946     		mov	r1, r7
 1785 0502 3046     		mov	r0, r6
 1786 0504 8DF80030 		strb	r3, [sp]
 1787              	.LVL137:
 164:lcdlib/daisy_ILI9341.hpp ****         return spi_.BlockingTransmit(&cmd, 1);
 1788              		.loc 6 164 23 view .LVU568
 1789              	.LBE522:
 1790              	.LBI521:
 162:lcdlib/daisy_ILI9341.hpp ****     {
 1791              		.loc 6 162 23 is_stmt 1 view .LVU569
 1792              	.LBB523:
 164:lcdlib/daisy_ILI9341.hpp ****         return spi_.BlockingTransmit(&cmd, 1);
 1793              		.loc 6 164 9 view .LVU570
 164:lcdlib/daisy_ILI9341.hpp ****         return spi_.BlockingTransmit(&cmd, 1);
 1794              		.loc 6 164 23 is_stmt 0 view .LVU571
 1795 0508 FFF7FEFF 		bl	dsy_gpio_write
 1796              	.LVL138:
 165:lcdlib/daisy_ILI9341.hpp ****     };
 1797              		.loc 6 165 9 is_stmt 1 view .LVU572
 165:lcdlib/daisy_ILI9341.hpp ****     };
 1798              		.loc 6 165 37 is_stmt 0 view .LVU573
 1799 050c 2246     		mov	r2, r4
 1800 050e 6946     		mov	r1, sp
 1801 0510 6423     		movs	r3, #100
 1802 0512 2846     		mov	r0, r5
 1803 0514 FFF7FEFF 		bl	_ZN5daisy9SpiHandle16BlockingTransmitEPhjm
 1804              	.LVL139:
 165:lcdlib/daisy_ILI9341.hpp ****     };
 1805              		.loc 6 165 37 view .LVU574
 1806              	.LBE523:
ARM GAS  /var/folders/cl/k1vt3d7567s5t107m3sv9whr0000gn/T//cclnrocj.s 			page 59


 1807              	.LBE521:
 479:lcdlib/daisy_ILI9341.hpp ****             uint8_t data[15] = {0x00,
 1808              		.loc 6 479 9 is_stmt 1 view .LVU575
 1809              	.LBB524:
 480:lcdlib/daisy_ILI9341.hpp ****                                 0x0E,
 1810              		.loc 6 480 13 view .LVU576
 480:lcdlib/daisy_ILI9341.hpp ****                                 0x0E,
 1811              		.loc 6 480 21 is_stmt 0 view .LVU577
 1812 0518 EC46     		mov	ip, sp
 1813 051a 99E80F00 		ldm	r9, {r0, r1, r2, r3}
 1814 051e ACE80700 		stmia	ip!, {r0, r1, r2}
 1815 0522 2CF8023B 		strh	r3, [ip], #2	@ movhi
 1816 0526 1B0C     		lsrs	r3, r3, #16
 1817              	.LBB388:
 1818              	.LBB389:
 170:lcdlib/daisy_ILI9341.hpp ****         return spi_.BlockingTransmit(buff, size);
 1819              		.loc 6 170 23 view .LVU578
 1820 0528 2146     		mov	r1, r4
 1821 052a 3046     		mov	r0, r6
 1822              	.LBE389:
 1823              	.LBE388:
 480:lcdlib/daisy_ILI9341.hpp ****                                 0x0E,
 1824              		.loc 6 480 21 view .LVU579
 1825 052c 8CF80030 		strb	r3, [ip]
 495:lcdlib/daisy_ILI9341.hpp ****         }
 1826              		.loc 6 495 13 is_stmt 1 view .LVU580
 1827              	.LVL140:
 1828              	.LBB391:
 1829              	.LBI388:
 168:lcdlib/daisy_ILI9341.hpp ****     {
 1830              		.loc 6 168 23 view .LVU581
 1831              	.LBB390:
 170:lcdlib/daisy_ILI9341.hpp ****         return spi_.BlockingTransmit(buff, size);
 1832              		.loc 6 170 9 view .LVU582
 170:lcdlib/daisy_ILI9341.hpp ****         return spi_.BlockingTransmit(buff, size);
 1833              		.loc 6 170 23 is_stmt 0 view .LVU583
 1834 0530 FFF7FEFF 		bl	dsy_gpio_write
 1835              	.LVL141:
 171:lcdlib/daisy_ILI9341.hpp ****     };
 1836              		.loc 6 171 9 is_stmt 1 view .LVU584
 171:lcdlib/daisy_ILI9341.hpp ****     };
 1837              		.loc 6 171 37 is_stmt 0 view .LVU585
 1838 0534 0F22     		movs	r2, #15
 1839 0536 6946     		mov	r1, sp
 1840 0538 6423     		movs	r3, #100
 1841 053a 2846     		mov	r0, r5
 1842 053c FFF7FEFF 		bl	_ZN5daisy9SpiHandle16BlockingTransmitEPhjm
 1843              	.LVL142:
 171:lcdlib/daisy_ILI9341.hpp ****     };
 1844              		.loc 6 171 37 view .LVU586
 1845              	.LBE390:
 1846              	.LBE391:
 1847              	.LBE524:
 499:lcdlib/daisy_ILI9341.hpp ****         System::Delay(100);
 1848              		.loc 6 499 9 is_stmt 1 view .LVU587
 499:lcdlib/daisy_ILI9341.hpp ****         System::Delay(100);
 1849              		.loc 6 499 9 is_stmt 0 view .LVU588
ARM GAS  /var/folders/cl/k1vt3d7567s5t107m3sv9whr0000gn/T//cclnrocj.s 			page 60


 1850 0540 1123     		movs	r3, #17
 1851              	.LBB525:
 1852              	.LBB526:
 164:lcdlib/daisy_ILI9341.hpp ****         return spi_.BlockingTransmit(&cmd, 1);
 1853              		.loc 6 164 23 view .LVU589
 1854 0542 3946     		mov	r1, r7
 1855 0544 3046     		mov	r0, r6
 1856 0546 8DF80030 		strb	r3, [sp]
 1857              	.LVL143:
 164:lcdlib/daisy_ILI9341.hpp ****         return spi_.BlockingTransmit(&cmd, 1);
 1858              		.loc 6 164 23 view .LVU590
 1859              	.LBE526:
 1860              	.LBI525:
 162:lcdlib/daisy_ILI9341.hpp ****     {
 1861              		.loc 6 162 23 is_stmt 1 view .LVU591
 1862              	.LBB527:
 164:lcdlib/daisy_ILI9341.hpp ****         return spi_.BlockingTransmit(&cmd, 1);
 1863              		.loc 6 164 9 view .LVU592
 164:lcdlib/daisy_ILI9341.hpp ****         return spi_.BlockingTransmit(&cmd, 1);
 1864              		.loc 6 164 23 is_stmt 0 view .LVU593
 1865 054a FFF7FEFF 		bl	dsy_gpio_write
 1866              	.LVL144:
 165:lcdlib/daisy_ILI9341.hpp ****     };
 1867              		.loc 6 165 9 is_stmt 1 view .LVU594
 165:lcdlib/daisy_ILI9341.hpp ****     };
 1868              		.loc 6 165 37 is_stmt 0 view .LVU595
 1869 054e 2246     		mov	r2, r4
 1870 0550 6946     		mov	r1, sp
 1871 0552 6423     		movs	r3, #100
 1872 0554 2846     		mov	r0, r5
 1873 0556 FFF7FEFF 		bl	_ZN5daisy9SpiHandle16BlockingTransmitEPhjm
 1874              	.LVL145:
 165:lcdlib/daisy_ILI9341.hpp ****     };
 1875              		.loc 6 165 37 view .LVU596
 1876              	.LBE527:
 1877              	.LBE525:
 500:lcdlib/daisy_ILI9341.hpp **** 
 1878              		.loc 6 500 9 is_stmt 1 view .LVU597
 500:lcdlib/daisy_ILI9341.hpp **** 
 1879              		.loc 6 500 22 is_stmt 0 view .LVU598
 1880 055a 6420     		movs	r0, #100
 1881 055c FFF7FEFF 		bl	_ZN5daisy6System5DelayEm
 1882              	.LVL146:
 503:lcdlib/daisy_ILI9341.hpp **** 
 1883              		.loc 6 503 9 is_stmt 1 view .LVU599
 503:lcdlib/daisy_ILI9341.hpp **** 
 1884              		.loc 6 503 9 is_stmt 0 view .LVU600
 1885 0560 2923     		movs	r3, #41
 1886              	.LBB528:
 1887              	.LBB529:
 164:lcdlib/daisy_ILI9341.hpp ****         return spi_.BlockingTransmit(&cmd, 1);
 1888              		.loc 6 164 23 view .LVU601
 1889 0562 3946     		mov	r1, r7
 1890 0564 3046     		mov	r0, r6
 1891 0566 8DF80030 		strb	r3, [sp]
 1892              	.LVL147:
 164:lcdlib/daisy_ILI9341.hpp ****         return spi_.BlockingTransmit(&cmd, 1);
ARM GAS  /var/folders/cl/k1vt3d7567s5t107m3sv9whr0000gn/T//cclnrocj.s 			page 61


 1893              		.loc 6 164 23 view .LVU602
 1894              	.LBE529:
 1895              	.LBI528:
 162:lcdlib/daisy_ILI9341.hpp ****     {
 1896              		.loc 6 162 23 is_stmt 1 view .LVU603
 1897              	.LBB530:
 164:lcdlib/daisy_ILI9341.hpp ****         return spi_.BlockingTransmit(&cmd, 1);
 1898              		.loc 6 164 9 view .LVU604
 164:lcdlib/daisy_ILI9341.hpp ****         return spi_.BlockingTransmit(&cmd, 1);
 1899              		.loc 6 164 23 is_stmt 0 view .LVU605
 1900 056a FFF7FEFF 		bl	dsy_gpio_write
 1901              	.LVL148:
 165:lcdlib/daisy_ILI9341.hpp ****     };
 1902              		.loc 6 165 9 is_stmt 1 view .LVU606
 165:lcdlib/daisy_ILI9341.hpp ****     };
 1903              		.loc 6 165 37 is_stmt 0 view .LVU607
 1904 056e 2246     		mov	r2, r4
 1905 0570 6423     		movs	r3, #100
 1906 0572 6946     		mov	r1, sp
 1907 0574 2846     		mov	r0, r5
 1908 0576 FFF7FEFF 		bl	_ZN5daisy9SpiHandle16BlockingTransmitEPhjm
 1909              	.LVL149:
 165:lcdlib/daisy_ILI9341.hpp ****     };
 1910              		.loc 6 165 37 view .LVU608
 1911              	.LBE530:
 1912              	.LBE528:
 506:lcdlib/daisy_ILI9341.hpp ****         System::Delay(10);
 1913              		.loc 6 506 9 is_stmt 1 view .LVU609
 1914              	.LBB531:
 1915              	.LBB532:
 164:lcdlib/daisy_ILI9341.hpp ****         return spi_.BlockingTransmit(&cmd, 1);
 1916              		.loc 6 164 23 is_stmt 0 view .LVU610
 1917 057a 3946     		mov	r1, r7
 1918 057c 3046     		mov	r0, r6
 1919 057e 8DF800A0 		strb	r10, [sp]
 1920              	.LVL150:
 164:lcdlib/daisy_ILI9341.hpp ****         return spi_.BlockingTransmit(&cmd, 1);
 1921              		.loc 6 164 23 view .LVU611
 1922              	.LBE532:
 1923              	.LBI531:
 162:lcdlib/daisy_ILI9341.hpp ****     {
 1924              		.loc 6 162 23 is_stmt 1 view .LVU612
 1925              	.LBB533:
 164:lcdlib/daisy_ILI9341.hpp ****         return spi_.BlockingTransmit(&cmd, 1);
 1926              		.loc 6 164 9 view .LVU613
 164:lcdlib/daisy_ILI9341.hpp ****         return spi_.BlockingTransmit(&cmd, 1);
 1927              		.loc 6 164 23 is_stmt 0 view .LVU614
 1928 0582 FFF7FEFF 		bl	dsy_gpio_write
 1929              	.LVL151:
 165:lcdlib/daisy_ILI9341.hpp ****     };
 1930              		.loc 6 165 9 is_stmt 1 view .LVU615
 165:lcdlib/daisy_ILI9341.hpp ****     };
 1931              		.loc 6 165 37 is_stmt 0 view .LVU616
 1932 0586 2246     		mov	r2, r4
 1933 0588 6946     		mov	r1, sp
 1934 058a 6423     		movs	r3, #100
 1935 058c 2846     		mov	r0, r5
ARM GAS  /var/folders/cl/k1vt3d7567s5t107m3sv9whr0000gn/T//cclnrocj.s 			page 62


 1936 058e FFF7FEFF 		bl	_ZN5daisy9SpiHandle16BlockingTransmitEPhjm
 1937              	.LVL152:
 165:lcdlib/daisy_ILI9341.hpp ****     };
 1938              		.loc 6 165 37 view .LVU617
 1939              	.LBE533:
 1940              	.LBE531:
 507:lcdlib/daisy_ILI9341.hpp **** 
 1941              		.loc 6 507 9 is_stmt 1 view .LVU618
 507:lcdlib/daisy_ILI9341.hpp **** 
 1942              		.loc 6 507 22 is_stmt 0 view .LVU619
 1943 0592 0A20     		movs	r0, #10
 1944 0594 FFF7FEFF 		bl	_ZN5daisy6System5DelayEm
 1945              	.LVL153:
 509:lcdlib/daisy_ILI9341.hpp ****             uint8_t data[1] = {rotation};
 1946              		.loc 6 509 9 is_stmt 1 view .LVU620
 1947              	.LBB534:
 510:lcdlib/daisy_ILI9341.hpp ****             transport_.SendData(data, 1);
 1948              		.loc 6 510 13 view .LVU621
 510:lcdlib/daisy_ILI9341.hpp ****             transport_.SendData(data, 1);
 1949              		.loc 6 510 40 is_stmt 0 view .LVU622
 1950 0598 98F85830 		ldrb	r3, [r8, #88]	@ zero_extendqisi2
 1951              	.LBB535:
 1952              	.LBB536:
 170:lcdlib/daisy_ILI9341.hpp ****         return spi_.BlockingTransmit(buff, size);
 1953              		.loc 6 170 23 view .LVU623
 1954 059c 3046     		mov	r0, r6
 1955 059e 2146     		mov	r1, r4
 1956              	.LBE536:
 1957              	.LBE535:
 510:lcdlib/daisy_ILI9341.hpp ****             transport_.SendData(data, 1);
 1958              		.loc 6 510 40 view .LVU624
 1959 05a0 8DF80030 		strb	r3, [sp]
 511:lcdlib/daisy_ILI9341.hpp ****         }
 1960              		.loc 6 511 13 is_stmt 1 view .LVU625
 1961              	.LVL154:
 1962              	.LBB538:
 1963              	.LBI535:
 168:lcdlib/daisy_ILI9341.hpp ****     {
 1964              		.loc 6 168 23 view .LVU626
 1965              	.LBB537:
 170:lcdlib/daisy_ILI9341.hpp ****         return spi_.BlockingTransmit(buff, size);
 1966              		.loc 6 170 9 view .LVU627
 170:lcdlib/daisy_ILI9341.hpp ****         return spi_.BlockingTransmit(buff, size);
 1967              		.loc 6 170 23 is_stmt 0 view .LVU628
 1968 05a4 FFF7FEFF 		bl	dsy_gpio_write
 1969              	.LVL155:
 171:lcdlib/daisy_ILI9341.hpp ****     };
 1970              		.loc 6 171 9 is_stmt 1 view .LVU629
 171:lcdlib/daisy_ILI9341.hpp ****     };
 1971              		.loc 6 171 37 is_stmt 0 view .LVU630
 1972 05a8 6423     		movs	r3, #100
 1973 05aa 2246     		mov	r2, r4
 1974 05ac 6946     		mov	r1, sp
 1975 05ae 2846     		mov	r0, r5
 1976 05b0 FFF7FEFF 		bl	_ZN5daisy9SpiHandle16BlockingTransmitEPhjm
 1977              	.LVL156:
 171:lcdlib/daisy_ILI9341.hpp ****     };
ARM GAS  /var/folders/cl/k1vt3d7567s5t107m3sv9whr0000gn/T//cclnrocj.s 			page 63


 1978              		.loc 6 171 37 view .LVU631
 1979              	.LBE537:
 1980              	.LBE538:
 1981              	.LBE534:
 513:lcdlib/daisy_ILI9341.hpp **** 
 1982              		.loc 6 513 5 view .LVU632
 1983 05b4 0BB0     		add	sp, sp, #44
 1984              		.cfi_def_cfa_offset 36
 1985              		@ sp needed
 1986 05b6 BDE8F08F 		pop	{r4, r5, r6, r7, r8, r9, r10, fp, pc}
 1987              	.LVL157:
 1988              	.L19:
 513:lcdlib/daisy_ILI9341.hpp **** 
 1989              		.loc 6 513 5 view .LVU633
 1990 05ba 00BF     		.align	2
 1991              	.L18:
 1992 05bc 04000000 		.word	.LC7
 1993              		.cfi_endproc
 1994              	.LFE4810:
 1996              		.section	.text._ZN8UiDriver8DrawLineEjjjjhh,"axG",%progbits,_ZN8UiDriver8DrawLineEjjjjhh,comdat
 1997              		.align	1
 1998              		.p2align 2,,3
 1999              		.weak	_ZN8UiDriver8DrawLineEjjjjhh
 2000              		.syntax unified
 2001              		.thumb
 2002              		.thumb_func
 2004              	_ZN8UiDriver8DrawLineEjjjjhh:
 2005              	.LVL158:
 2006              	.LFB4815:
 550:lcdlib/daisy_ILI9341.hpp ****         }
 551:lcdlib/daisy_ILI9341.hpp ****     }
 552:lcdlib/daisy_ILI9341.hpp **** 
 553:lcdlib/daisy_ILI9341.hpp ****     Rectangle GetDrawableFrame() const
 554:lcdlib/daisy_ILI9341.hpp ****     {
 555:lcdlib/daisy_ILI9341.hpp ****         return Rectangle(int16_t(width), int16_t(height))
 556:lcdlib/daisy_ILI9341.hpp ****             .WithTrimmedTop(header)
 557:lcdlib/daisy_ILI9341.hpp ****             .WithTrimmedBottom(footer);
 558:lcdlib/daisy_ILI9341.hpp ****     }
 559:lcdlib/daisy_ILI9341.hpp **** 
 560:lcdlib/daisy_ILI9341.hpp ****     Rectangle GetBounds() const
 561:lcdlib/daisy_ILI9341.hpp ****     {
 562:lcdlib/daisy_ILI9341.hpp ****         return Rectangle(int16_t(width), int16_t(height));
 563:lcdlib/daisy_ILI9341.hpp ****     }
 564:lcdlib/daisy_ILI9341.hpp **** 
 565:lcdlib/daisy_ILI9341.hpp ****     void Fill(uint8_t color)
 566:lcdlib/daisy_ILI9341.hpp ****     {
 567:lcdlib/daisy_ILI9341.hpp ****         for(size_t i = 0; i < transport_.buffer_size / 2; i++)
 568:lcdlib/daisy_ILI9341.hpp ****         {
 569:lcdlib/daisy_ILI9341.hpp ****             transport_.PaintPixel(i * 2, color);
 570:lcdlib/daisy_ILI9341.hpp ****         }
 571:lcdlib/daisy_ILI9341.hpp ****     };
 572:lcdlib/daisy_ILI9341.hpp **** 
 573:lcdlib/daisy_ILI9341.hpp ****     void DrawLine(uint_fast16_t x1,
 2007              		.loc 6 573 10 is_stmt 1 view -0
 2008              		.cfi_startproc
 2009              		@ args = 12, pretend = 0, frame = 32
 2010              		@ frame_needed = 0, uses_anonymous_args = 0
ARM GAS  /var/folders/cl/k1vt3d7567s5t107m3sv9whr0000gn/T//cclnrocj.s 			page 64


 2011              		.loc 6 573 10 is_stmt 0 view .LVU635
 2012 0000 2DE9F04F 		push	{r4, r5, r6, r7, r8, r9, r10, fp, lr}
 2013              		.cfi_def_cfa_offset 36
 2014              		.cfi_offset 4, -36
 2015              		.cfi_offset 5, -32
 2016              		.cfi_offset 6, -28
 2017              		.cfi_offset 7, -24
 2018              		.cfi_offset 8, -20
 2019              		.cfi_offset 9, -16
 2020              		.cfi_offset 10, -12
 2021              		.cfi_offset 11, -8
 2022              		.cfi_offset 14, -4
 2023 0004 89B0     		sub	sp, sp, #36
 2024              		.cfi_def_cfa_offset 72
 574:lcdlib/daisy_ILI9341.hpp ****                   uint_fast16_t y1,
 575:lcdlib/daisy_ILI9341.hpp ****                   uint_fast16_t x2,
 576:lcdlib/daisy_ILI9341.hpp ****                   uint_fast16_t y2,
 577:lcdlib/daisy_ILI9341.hpp ****                   uint8_t       color,
 578:lcdlib/daisy_ILI9341.hpp ****                   uint8_t       alpha = 255)
 579:lcdlib/daisy_ILI9341.hpp ****     {
 580:lcdlib/daisy_ILI9341.hpp ****         if(x1 == x2)
 2025              		.loc 6 580 9 is_stmt 1 view .LVU636
 2026 0006 9942     		cmp	r1, r3
 573:lcdlib/daisy_ILI9341.hpp ****                   uint_fast16_t y1,
 2027              		.loc 6 573 10 is_stmt 0 view .LVU637
 2028 0008 9DF85040 		ldrb	r4, [sp, #80]	@ zero_extendqisi2
 2029 000c 9DF84CB0 		ldrb	fp, [sp, #76]	@ zero_extendqisi2
 2030 0010 0194     		str	r4, [sp, #4]
 2031              		.loc 6 580 9 view .LVU638
 2032 0012 00F0DB80 		beq	.L66
 581:lcdlib/daisy_ILI9341.hpp ****         {
 582:lcdlib/daisy_ILI9341.hpp ****             return DrawVLine(x1, y1, y2 - y1 + 1, color, alpha);
 583:lcdlib/daisy_ILI9341.hpp ****         }
 584:lcdlib/daisy_ILI9341.hpp ****         else if(y1 == y2)
 2033              		.loc 6 584 14 is_stmt 1 view .LVU639
 2034 0016 129C     		ldr	r4, [sp, #72]
 2035 0018 A242     		cmp	r2, r4
 2036 001a 00F03081 		beq	.L67
 585:lcdlib/daisy_ILI9341.hpp ****         {
 586:lcdlib/daisy_ILI9341.hpp ****             return DrawHLine(x1, y1, x2 - x1 + 1, color, alpha);
 587:lcdlib/daisy_ILI9341.hpp ****         }
 588:lcdlib/daisy_ILI9341.hpp **** 
 589:lcdlib/daisy_ILI9341.hpp ****         auto deltaX = abs((int_fast16_t)x2 - (int_fast16_t)x1);
 2037              		.loc 6 589 9 view .LVU640
 590:lcdlib/daisy_ILI9341.hpp ****         auto deltaY = abs((int_fast16_t)y2 - (int_fast16_t)y1);
 2038              		.loc 6 590 44 is_stmt 0 view .LVU641
 2039 001e 129C     		ldr	r4, [sp, #72]
 589:lcdlib/daisy_ILI9341.hpp ****         auto deltaY = abs((int_fast16_t)y2 - (int_fast16_t)y1);
 2040              		.loc 6 589 44 view .LVU642
 2041 0020 5E1A     		subs	r6, r3, r1
 2042              	.LBB581:
 2043              	.LBB582:
 591:lcdlib/daisy_ILI9341.hpp ****         auto signX  = ((x1 < x2) ? 1 : -1);
 592:lcdlib/daisy_ILI9341.hpp ****         auto signY  = ((y1 < y2) ? 1 : -1);
 593:lcdlib/daisy_ILI9341.hpp ****         auto error  = deltaX - deltaY;
 594:lcdlib/daisy_ILI9341.hpp **** 
 595:lcdlib/daisy_ILI9341.hpp ****         DrawPixel(x2, y2, color, alpha);
ARM GAS  /var/folders/cl/k1vt3d7567s5t107m3sv9whr0000gn/T//cclnrocj.s 			page 65


 596:lcdlib/daisy_ILI9341.hpp **** 
 597:lcdlib/daisy_ILI9341.hpp ****         while((x1 != x2) || (y1 != y2))
 598:lcdlib/daisy_ILI9341.hpp ****         {
 599:lcdlib/daisy_ILI9341.hpp ****             DrawPixel(x1, y1, color, alpha);
 600:lcdlib/daisy_ILI9341.hpp ****             auto error2 = error * 2;
 601:lcdlib/daisy_ILI9341.hpp ****             if(error2 > -deltaY)
 602:lcdlib/daisy_ILI9341.hpp ****             {
 603:lcdlib/daisy_ILI9341.hpp ****                 error -= deltaY;
 604:lcdlib/daisy_ILI9341.hpp ****                 x1 += signX;
 605:lcdlib/daisy_ILI9341.hpp ****             }
 606:lcdlib/daisy_ILI9341.hpp **** 
 607:lcdlib/daisy_ILI9341.hpp ****             if(error2 < deltaX)
 608:lcdlib/daisy_ILI9341.hpp ****             {
 609:lcdlib/daisy_ILI9341.hpp ****                 error += deltaX;
 610:lcdlib/daisy_ILI9341.hpp ****                 y1 += signY;
 611:lcdlib/daisy_ILI9341.hpp ****             }
 612:lcdlib/daisy_ILI9341.hpp ****         }
 613:lcdlib/daisy_ILI9341.hpp ****     }
 614:lcdlib/daisy_ILI9341.hpp **** 
 615:lcdlib/daisy_ILI9341.hpp ****     void FillArea(uint_fast16_t x,
 616:lcdlib/daisy_ILI9341.hpp ****                   uint_fast16_t y,
 617:lcdlib/daisy_ILI9341.hpp ****                   uint_fast16_t w,
 618:lcdlib/daisy_ILI9341.hpp ****                   uint_fast16_t h,
 619:lcdlib/daisy_ILI9341.hpp ****                   uint8_t       color,
 620:lcdlib/daisy_ILI9341.hpp ****                   uint8_t       alpha = 255)
 621:lcdlib/daisy_ILI9341.hpp ****     {
 622:lcdlib/daisy_ILI9341.hpp ****         // Loop through every Y sector
 623:lcdlib/daisy_ILI9341.hpp ****         for(size_t i = 0; i < h; i++)
 624:lcdlib/daisy_ILI9341.hpp ****         {
 625:lcdlib/daisy_ILI9341.hpp ****             for(size_t j = 0; j < w; j++)
 626:lcdlib/daisy_ILI9341.hpp ****             {
 627:lcdlib/daisy_ILI9341.hpp ****                 DrawPixel(x + j, y + i, color, alpha);
 628:lcdlib/daisy_ILI9341.hpp ****             }
 629:lcdlib/daisy_ILI9341.hpp ****         }
 630:lcdlib/daisy_ILI9341.hpp ****     };
 631:lcdlib/daisy_ILI9341.hpp **** 
 632:lcdlib/daisy_ILI9341.hpp ****     void DrawRect(uint16_t x,
 633:lcdlib/daisy_ILI9341.hpp ****                   uint16_t y,
 634:lcdlib/daisy_ILI9341.hpp ****                   uint16_t w,
 635:lcdlib/daisy_ILI9341.hpp ****                   uint16_t h,
 636:lcdlib/daisy_ILI9341.hpp ****                   uint8_t  color,
 637:lcdlib/daisy_ILI9341.hpp ****                   uint8_t  alpha = 255)
 638:lcdlib/daisy_ILI9341.hpp ****     {
 639:lcdlib/daisy_ILI9341.hpp ****         auto x2 = x + w;
 640:lcdlib/daisy_ILI9341.hpp ****         auto y2 = y + h;
 641:lcdlib/daisy_ILI9341.hpp ****         DrawLine(x, y, x, y2, color, alpha);
 642:lcdlib/daisy_ILI9341.hpp ****         DrawLine(x, y, x2, y, color, alpha);
 643:lcdlib/daisy_ILI9341.hpp ****         DrawLine(x, y2, x2, y2, color, alpha);
 644:lcdlib/daisy_ILI9341.hpp ****         DrawLine(x2, y, x2, y2, color, alpha);
 645:lcdlib/daisy_ILI9341.hpp ****     }
 646:lcdlib/daisy_ILI9341.hpp **** 
 647:lcdlib/daisy_ILI9341.hpp ****     void DrawRect(const Rectangle& rect, uint8_t color, uint8_t alpha = 255)
 648:lcdlib/daisy_ILI9341.hpp ****     {
 649:lcdlib/daisy_ILI9341.hpp ****         DrawRect(rect.GetX(),
 650:lcdlib/daisy_ILI9341.hpp ****                  rect.GetY(),
 651:lcdlib/daisy_ILI9341.hpp ****                  rect.GetWidth(),
 652:lcdlib/daisy_ILI9341.hpp ****                  rect.GetHeight(),
ARM GAS  /var/folders/cl/k1vt3d7567s5t107m3sv9whr0000gn/T//cclnrocj.s 			page 66


 653:lcdlib/daisy_ILI9341.hpp ****                  color,
 654:lcdlib/daisy_ILI9341.hpp ****                  alpha);
 655:lcdlib/daisy_ILI9341.hpp ****     }
 656:lcdlib/daisy_ILI9341.hpp **** 
 657:lcdlib/daisy_ILI9341.hpp ****     void FillRect(const Rectangle& rect, uint8_t color, uint8_t alpha = 255)
 658:lcdlib/daisy_ILI9341.hpp ****     {
 659:lcdlib/daisy_ILI9341.hpp ****         FillArea(rect.GetX(),
 660:lcdlib/daisy_ILI9341.hpp ****                  rect.GetY(),
 661:lcdlib/daisy_ILI9341.hpp ****                  rect.GetWidth(),
 662:lcdlib/daisy_ILI9341.hpp ****                  rect.GetHeight(),
 663:lcdlib/daisy_ILI9341.hpp ****                  color,
 664:lcdlib/daisy_ILI9341.hpp ****                  alpha);
 665:lcdlib/daisy_ILI9341.hpp ****     };
 666:lcdlib/daisy_ILI9341.hpp **** 
 667:lcdlib/daisy_ILI9341.hpp ****     void DrawTriangle(int16_t x0,
 668:lcdlib/daisy_ILI9341.hpp ****                       int16_t y0,
 669:lcdlib/daisy_ILI9341.hpp ****                       int16_t x1,
 670:lcdlib/daisy_ILI9341.hpp ****                       int16_t y1,
 671:lcdlib/daisy_ILI9341.hpp ****                       int16_t x2,
 672:lcdlib/daisy_ILI9341.hpp ****                       int16_t y2,
 673:lcdlib/daisy_ILI9341.hpp ****                       uint8_t color,
 674:lcdlib/daisy_ILI9341.hpp ****                       uint8_t alpha = 255)
 675:lcdlib/daisy_ILI9341.hpp ****     {
 676:lcdlib/daisy_ILI9341.hpp ****         DrawLine(x0, y0, x1, y1, color, alpha);
 677:lcdlib/daisy_ILI9341.hpp ****         DrawLine(x1, y1, x2, y2, color, alpha);
 678:lcdlib/daisy_ILI9341.hpp ****         DrawLine(x2, y2, x0, y0, color, alpha);
 679:lcdlib/daisy_ILI9341.hpp ****     }
 680:lcdlib/daisy_ILI9341.hpp **** 
 681:lcdlib/daisy_ILI9341.hpp ****     void FillTriangle(int16_t x0,
 682:lcdlib/daisy_ILI9341.hpp ****                       int16_t y0,
 683:lcdlib/daisy_ILI9341.hpp ****                       int16_t x1,
 684:lcdlib/daisy_ILI9341.hpp ****                       int16_t y1,
 685:lcdlib/daisy_ILI9341.hpp ****                       int16_t x2,
 686:lcdlib/daisy_ILI9341.hpp ****                       int16_t y2,
 687:lcdlib/daisy_ILI9341.hpp ****                       uint8_t color,
 688:lcdlib/daisy_ILI9341.hpp ****                       uint8_t alpha = 255)
 689:lcdlib/daisy_ILI9341.hpp ****     {
 690:lcdlib/daisy_ILI9341.hpp ****         int16_t a, b, y, last;
 691:lcdlib/daisy_ILI9341.hpp **** 
 692:lcdlib/daisy_ILI9341.hpp ****         // Sort coordinates by Y order (y2 >= y1 >= y0)
 693:lcdlib/daisy_ILI9341.hpp ****         if(y0 > y1)
 694:lcdlib/daisy_ILI9341.hpp ****         {
 695:lcdlib/daisy_ILI9341.hpp ****             std::swap(y0, y1);
 696:lcdlib/daisy_ILI9341.hpp ****             std::swap(x0, x1);
 697:lcdlib/daisy_ILI9341.hpp ****         }
 698:lcdlib/daisy_ILI9341.hpp ****         if(y1 > y2)
 699:lcdlib/daisy_ILI9341.hpp ****         {
 700:lcdlib/daisy_ILI9341.hpp ****             std::swap(y2, y1);
 701:lcdlib/daisy_ILI9341.hpp ****             std::swap(x2, x1);
 702:lcdlib/daisy_ILI9341.hpp ****         }
 703:lcdlib/daisy_ILI9341.hpp ****         if(y0 > y1)
 704:lcdlib/daisy_ILI9341.hpp ****         {
 705:lcdlib/daisy_ILI9341.hpp ****             std::swap(y0, y1);
 706:lcdlib/daisy_ILI9341.hpp ****             std::swap(x0, x1);
 707:lcdlib/daisy_ILI9341.hpp ****         }
 708:lcdlib/daisy_ILI9341.hpp **** 
 709:lcdlib/daisy_ILI9341.hpp ****         if(y0 == y2)
ARM GAS  /var/folders/cl/k1vt3d7567s5t107m3sv9whr0000gn/T//cclnrocj.s 			page 67


 710:lcdlib/daisy_ILI9341.hpp ****         { // Handle awkward all-on-same-line case as its own thing
 711:lcdlib/daisy_ILI9341.hpp ****             a = b = x0;
 712:lcdlib/daisy_ILI9341.hpp ****             if(x1 < a)
 713:lcdlib/daisy_ILI9341.hpp ****                 a = x1;
 714:lcdlib/daisy_ILI9341.hpp ****             else if(x1 > b)
 715:lcdlib/daisy_ILI9341.hpp ****                 b = x1;
 716:lcdlib/daisy_ILI9341.hpp ****             if(x2 < a)
 717:lcdlib/daisy_ILI9341.hpp ****                 a = x2;
 718:lcdlib/daisy_ILI9341.hpp ****             else if(x2 > b)
 719:lcdlib/daisy_ILI9341.hpp ****                 b = x2;
 720:lcdlib/daisy_ILI9341.hpp ****             DrawHLine(a, y0, b - a + 1, color, alpha);
 721:lcdlib/daisy_ILI9341.hpp ****             return;
 722:lcdlib/daisy_ILI9341.hpp ****         }
 723:lcdlib/daisy_ILI9341.hpp **** 
 724:lcdlib/daisy_ILI9341.hpp ****         int16_t dx01 = x1 - x0, dy01 = y1 - y0, dx02 = x2 - x0, dy02 = y2 - y0,
 725:lcdlib/daisy_ILI9341.hpp ****                 dx12 = x2 - x1, dy12 = y2 - y1;
 726:lcdlib/daisy_ILI9341.hpp ****         int32_t sa = 0, sb = 0;
 727:lcdlib/daisy_ILI9341.hpp **** 
 728:lcdlib/daisy_ILI9341.hpp ****         // For upper part of triangle, find scanline crossings for segments
 729:lcdlib/daisy_ILI9341.hpp ****         // 0-1 and 0-2.  If y1=y2 (flat-bottomed triangle), the scanline y1
 730:lcdlib/daisy_ILI9341.hpp ****         // is included here (and second loop will be skipped, avoiding a /0
 731:lcdlib/daisy_ILI9341.hpp ****         // error there), otherwise scanline y1 is skipped here and handled
 732:lcdlib/daisy_ILI9341.hpp ****         // in the second loop...which also avoids a /0 error here if y0=y1
 733:lcdlib/daisy_ILI9341.hpp ****         // (flat-topped triangle).
 734:lcdlib/daisy_ILI9341.hpp ****         if(y1 == y2)
 735:lcdlib/daisy_ILI9341.hpp ****         {
 736:lcdlib/daisy_ILI9341.hpp ****             last = y1; // Include y1 scanline
 737:lcdlib/daisy_ILI9341.hpp ****         }
 738:lcdlib/daisy_ILI9341.hpp ****         else
 739:lcdlib/daisy_ILI9341.hpp ****         {
 740:lcdlib/daisy_ILI9341.hpp ****             last = y1 - 1; // Skip it
 741:lcdlib/daisy_ILI9341.hpp ****         }
 742:lcdlib/daisy_ILI9341.hpp **** 
 743:lcdlib/daisy_ILI9341.hpp ****         for(y = y0; y <= last; y++)
 744:lcdlib/daisy_ILI9341.hpp ****         {
 745:lcdlib/daisy_ILI9341.hpp ****             a = x0 + sa / dy01;
 746:lcdlib/daisy_ILI9341.hpp ****             b = x0 + sb / dy02;
 747:lcdlib/daisy_ILI9341.hpp ****             sa += dx01;
 748:lcdlib/daisy_ILI9341.hpp ****             sb += dx02;
 749:lcdlib/daisy_ILI9341.hpp ****             /* longhand:
 750:lcdlib/daisy_ILI9341.hpp ****             a = x0 + (x1 - x0) * (y - y0) / (y1 - y0);
 751:lcdlib/daisy_ILI9341.hpp ****             b = x0 + (x2 - x0) * (y - y0) / (y2 - y0);
 752:lcdlib/daisy_ILI9341.hpp ****             */
 753:lcdlib/daisy_ILI9341.hpp ****             if(a > b)
 754:lcdlib/daisy_ILI9341.hpp ****             {
 755:lcdlib/daisy_ILI9341.hpp ****                 std::swap(a, b);
 756:lcdlib/daisy_ILI9341.hpp ****             }
 757:lcdlib/daisy_ILI9341.hpp ****             DrawHLine(a, y, b - a + 1, color, alpha);
 758:lcdlib/daisy_ILI9341.hpp ****         }
 759:lcdlib/daisy_ILI9341.hpp **** 
 760:lcdlib/daisy_ILI9341.hpp ****         // For lower part of triangle, find scanline crossings for segments
 761:lcdlib/daisy_ILI9341.hpp ****         // 0-2 and 1-2.  This loop is skipped if y1=y2.
 762:lcdlib/daisy_ILI9341.hpp ****         sa = (int32_t)dx12 * (y - y1);
 763:lcdlib/daisy_ILI9341.hpp ****         sb = (int32_t)dx02 * (y - y0);
 764:lcdlib/daisy_ILI9341.hpp ****         for(; y <= y2; y++)
 765:lcdlib/daisy_ILI9341.hpp ****         {
 766:lcdlib/daisy_ILI9341.hpp ****             a = x1 + sa / dy12;
ARM GAS  /var/folders/cl/k1vt3d7567s5t107m3sv9whr0000gn/T//cclnrocj.s 			page 68


 767:lcdlib/daisy_ILI9341.hpp ****             b = x0 + sb / dy02;
 768:lcdlib/daisy_ILI9341.hpp ****             sa += dx12;
 769:lcdlib/daisy_ILI9341.hpp ****             sb += dx02;
 770:lcdlib/daisy_ILI9341.hpp ****             /* longhand:
 771:lcdlib/daisy_ILI9341.hpp ****                 a = x1 + (x2 - x1) * (y - y1) / (y2 - y1);
 772:lcdlib/daisy_ILI9341.hpp ****                 b = x0 + (x2 - x0) * (y - y0) / (y2 - y0);
 773:lcdlib/daisy_ILI9341.hpp ****             */
 774:lcdlib/daisy_ILI9341.hpp ****             if(a > b)
 775:lcdlib/daisy_ILI9341.hpp ****             {
 776:lcdlib/daisy_ILI9341.hpp ****                 std::swap(a, b);
 777:lcdlib/daisy_ILI9341.hpp ****             }
 778:lcdlib/daisy_ILI9341.hpp ****             DrawHLine(a, y, b - a + 1, color, alpha);
 779:lcdlib/daisy_ILI9341.hpp ****         }
 780:lcdlib/daisy_ILI9341.hpp ****     }
 781:lcdlib/daisy_ILI9341.hpp **** 
 782:lcdlib/daisy_ILI9341.hpp **** 
 783:lcdlib/daisy_ILI9341.hpp ****     Rectangle WriteStringAligned(const char*    str,
 784:lcdlib/daisy_ILI9341.hpp ****                                  const FontDef& font,
 785:lcdlib/daisy_ILI9341.hpp ****                                  Rectangle      boundingBox,
 786:lcdlib/daisy_ILI9341.hpp ****                                  Alignment      alignment,
 787:lcdlib/daisy_ILI9341.hpp ****                                  uint8_t        color)
 788:lcdlib/daisy_ILI9341.hpp ****     {
 789:lcdlib/daisy_ILI9341.hpp ****         const auto alignedRect
 790:lcdlib/daisy_ILI9341.hpp ****             = GetTextRect(str, font).AlignedWithin(boundingBox, alignment);
 791:lcdlib/daisy_ILI9341.hpp ****         WriteString(str, alignedRect.GetX(), alignedRect.GetY(), font, color);
 792:lcdlib/daisy_ILI9341.hpp ****         return alignedRect;
 793:lcdlib/daisy_ILI9341.hpp ****     }
 794:lcdlib/daisy_ILI9341.hpp **** 
 795:lcdlib/daisy_ILI9341.hpp ****     Rectangle GetTextRect(const char* text, const FontDef& font) const
 796:lcdlib/daisy_ILI9341.hpp ****     {
 797:lcdlib/daisy_ILI9341.hpp ****         return {int16_t(strlen(text) * font.FontWidth), font.FontHeight};
 798:lcdlib/daisy_ILI9341.hpp ****     }
 799:lcdlib/daisy_ILI9341.hpp **** 
 800:lcdlib/daisy_ILI9341.hpp ****     char WriteChar(char ch, FontDef font, uint8_t color)
 801:lcdlib/daisy_ILI9341.hpp ****     {
 802:lcdlib/daisy_ILI9341.hpp ****         // Check if character is valid
 803:lcdlib/daisy_ILI9341.hpp ****         if(ch < 32 || ch > 126)
 804:lcdlib/daisy_ILI9341.hpp ****             return 0;
 805:lcdlib/daisy_ILI9341.hpp **** 
 806:lcdlib/daisy_ILI9341.hpp ****         // Check remaining space on current line
 807:lcdlib/daisy_ILI9341.hpp ****         if(width < (currentX_ + font.FontWidth)
 808:lcdlib/daisy_ILI9341.hpp ****            || height < (currentY_ + font.FontHeight))
 809:lcdlib/daisy_ILI9341.hpp ****         {
 810:lcdlib/daisy_ILI9341.hpp ****             return 0;
 811:lcdlib/daisy_ILI9341.hpp ****         }
 812:lcdlib/daisy_ILI9341.hpp **** 
 813:lcdlib/daisy_ILI9341.hpp ****         // Use the font to write
 814:lcdlib/daisy_ILI9341.hpp ****         for(auto i = 0; i < font.FontHeight; i++)
 815:lcdlib/daisy_ILI9341.hpp ****         {
 816:lcdlib/daisy_ILI9341.hpp ****             auto b = font.data[(ch - 32) * font.FontHeight + i];
 817:lcdlib/daisy_ILI9341.hpp ****             for(auto j = 0; j < font.FontWidth; j++)
 818:lcdlib/daisy_ILI9341.hpp ****             {
 819:lcdlib/daisy_ILI9341.hpp ****                 if((b << j) & 0x8000)
 820:lcdlib/daisy_ILI9341.hpp ****                 {
 821:lcdlib/daisy_ILI9341.hpp ****                     DrawPixel(currentX_ + j, (currentY_ + i), color);
 822:lcdlib/daisy_ILI9341.hpp ****                 }
 823:lcdlib/daisy_ILI9341.hpp ****             }
ARM GAS  /var/folders/cl/k1vt3d7567s5t107m3sv9whr0000gn/T//cclnrocj.s 			page 69


 824:lcdlib/daisy_ILI9341.hpp ****         }
 825:lcdlib/daisy_ILI9341.hpp **** 
 826:lcdlib/daisy_ILI9341.hpp ****         // The current space is now taken
 827:lcdlib/daisy_ILI9341.hpp ****         SetCursor(currentX_ + font.FontWidth, currentY_);
 828:lcdlib/daisy_ILI9341.hpp **** 
 829:lcdlib/daisy_ILI9341.hpp ****         return ch;
 830:lcdlib/daisy_ILI9341.hpp ****     }
 831:lcdlib/daisy_ILI9341.hpp **** 
 832:lcdlib/daisy_ILI9341.hpp ****     void WriteString(const char* str, uint16_t x, uint16_t y, FontDef font)
 833:lcdlib/daisy_ILI9341.hpp ****     {
 834:lcdlib/daisy_ILI9341.hpp ****         WriteString(str, x, y, font, COLOR_WHITE);
 835:lcdlib/daisy_ILI9341.hpp ****     }
 836:lcdlib/daisy_ILI9341.hpp **** 
 837:lcdlib/daisy_ILI9341.hpp ****     void WriteString(const char* str,
 838:lcdlib/daisy_ILI9341.hpp ****                      uint16_t    x,
 839:lcdlib/daisy_ILI9341.hpp ****                      uint16_t    y,
 840:lcdlib/daisy_ILI9341.hpp ****                      FontDef     font,
 841:lcdlib/daisy_ILI9341.hpp ****                      uint8_t     color)
 842:lcdlib/daisy_ILI9341.hpp ****     {
 843:lcdlib/daisy_ILI9341.hpp ****         SetCursor(x, y);
 844:lcdlib/daisy_ILI9341.hpp ****         while(*str) // Write until null-byte
 845:lcdlib/daisy_ILI9341.hpp ****         {
 846:lcdlib/daisy_ILI9341.hpp ****             if(WriteChar(*str, font, color) != *str)
 847:lcdlib/daisy_ILI9341.hpp ****             {
 848:lcdlib/daisy_ILI9341.hpp ****                 return; // Char could not be written
 849:lcdlib/daisy_ILI9341.hpp ****             }
 850:lcdlib/daisy_ILI9341.hpp ****             str++; // Next char
 851:lcdlib/daisy_ILI9341.hpp ****         }
 852:lcdlib/daisy_ILI9341.hpp ****     }
 853:lcdlib/daisy_ILI9341.hpp **** 
 854:lcdlib/daisy_ILI9341.hpp ****     uint16_t GetStringWidth(const char* str, FontDef font) const
 855:lcdlib/daisy_ILI9341.hpp ****     {
 856:lcdlib/daisy_ILI9341.hpp ****         uint16_t font_width = 0;
 857:lcdlib/daisy_ILI9341.hpp ****         // Loop until null-byte
 858:lcdlib/daisy_ILI9341.hpp ****         while(*str)
 859:lcdlib/daisy_ILI9341.hpp ****         {
 860:lcdlib/daisy_ILI9341.hpp ****             font_width += font.FontWidth;
 861:lcdlib/daisy_ILI9341.hpp ****             str++;
 862:lcdlib/daisy_ILI9341.hpp ****         }
 863:lcdlib/daisy_ILI9341.hpp **** 
 864:lcdlib/daisy_ILI9341.hpp ****         return font_width;
 865:lcdlib/daisy_ILI9341.hpp ****     }
 866:lcdlib/daisy_ILI9341.hpp **** 
 867:lcdlib/daisy_ILI9341.hpp ****     void DrawCircle(int16_t x0, int16_t y0, int16_t r, uint8_t color)
 868:lcdlib/daisy_ILI9341.hpp ****     {
 869:lcdlib/daisy_ILI9341.hpp ****         int16_t f     = 1 - r;
 870:lcdlib/daisy_ILI9341.hpp ****         int16_t ddF_x = 1;
 871:lcdlib/daisy_ILI9341.hpp ****         int16_t ddF_y = -2 * r;
 872:lcdlib/daisy_ILI9341.hpp ****         int16_t x     = 0;
 873:lcdlib/daisy_ILI9341.hpp ****         int16_t y     = r;
 874:lcdlib/daisy_ILI9341.hpp **** 
 875:lcdlib/daisy_ILI9341.hpp ****         DrawPixel(x0, y0 + r, color);
 876:lcdlib/daisy_ILI9341.hpp ****         DrawPixel(x0, y0 - r, color);
 877:lcdlib/daisy_ILI9341.hpp ****         DrawPixel(x0 + r, y0, color);
 878:lcdlib/daisy_ILI9341.hpp ****         DrawPixel(x0 - r, y0, color);
 879:lcdlib/daisy_ILI9341.hpp **** 
 880:lcdlib/daisy_ILI9341.hpp ****         while(x < y)
ARM GAS  /var/folders/cl/k1vt3d7567s5t107m3sv9whr0000gn/T//cclnrocj.s 			page 70


 881:lcdlib/daisy_ILI9341.hpp ****         {
 882:lcdlib/daisy_ILI9341.hpp ****             if(f >= 0)
 883:lcdlib/daisy_ILI9341.hpp ****             {
 884:lcdlib/daisy_ILI9341.hpp ****                 y--;
 885:lcdlib/daisy_ILI9341.hpp ****                 ddF_y += 2;
 886:lcdlib/daisy_ILI9341.hpp ****                 f += ddF_y;
 887:lcdlib/daisy_ILI9341.hpp ****             }
 888:lcdlib/daisy_ILI9341.hpp ****             x++;
 889:lcdlib/daisy_ILI9341.hpp ****             ddF_x += 2;
 890:lcdlib/daisy_ILI9341.hpp ****             f += ddF_x;
 891:lcdlib/daisy_ILI9341.hpp **** 
 892:lcdlib/daisy_ILI9341.hpp ****             DrawPixel(x0 + x, y0 + y, color);
 893:lcdlib/daisy_ILI9341.hpp ****             DrawPixel(x0 - x, y0 + y, color);
 894:lcdlib/daisy_ILI9341.hpp ****             DrawPixel(x0 + x, y0 - y, color);
 895:lcdlib/daisy_ILI9341.hpp ****             DrawPixel(x0 - x, y0 - y, color);
 896:lcdlib/daisy_ILI9341.hpp ****             DrawPixel(x0 + y, y0 + x, color);
 897:lcdlib/daisy_ILI9341.hpp ****             DrawPixel(x0 - y, y0 + x, color);
 898:lcdlib/daisy_ILI9341.hpp ****             DrawPixel(x0 + y, y0 - x, color);
 899:lcdlib/daisy_ILI9341.hpp ****             DrawPixel(x0 - y, y0 - x, color);
 900:lcdlib/daisy_ILI9341.hpp ****         }
 901:lcdlib/daisy_ILI9341.hpp ****     }
 902:lcdlib/daisy_ILI9341.hpp **** 
 903:lcdlib/daisy_ILI9341.hpp ****     void FillCircle(int16_t x0, int16_t y0, int16_t r, uint8_t color)
 904:lcdlib/daisy_ILI9341.hpp ****     {
 905:lcdlib/daisy_ILI9341.hpp ****         DrawLine(x0, y0, x0, y0 + 2 * r + 1, color);
 906:lcdlib/daisy_ILI9341.hpp ****         FillCircleHelper(x0, y0, r, 3, 0, color);
 907:lcdlib/daisy_ILI9341.hpp ****     }
 908:lcdlib/daisy_ILI9341.hpp **** 
 909:lcdlib/daisy_ILI9341.hpp ****     void FillCircleHelper(int16_t x0,
 910:lcdlib/daisy_ILI9341.hpp ****                           int16_t y0,
 911:lcdlib/daisy_ILI9341.hpp ****                           int16_t r,
 912:lcdlib/daisy_ILI9341.hpp ****                           uint8_t cornername,
 913:lcdlib/daisy_ILI9341.hpp ****                           int16_t delta,
 914:lcdlib/daisy_ILI9341.hpp ****                           uint8_t color)
 915:lcdlib/daisy_ILI9341.hpp ****     {
 916:lcdlib/daisy_ILI9341.hpp ****         int16_t f     = 1 - r;
 917:lcdlib/daisy_ILI9341.hpp ****         int16_t ddF_x = 1;
 918:lcdlib/daisy_ILI9341.hpp ****         int16_t ddF_y = -2 * r;
 919:lcdlib/daisy_ILI9341.hpp ****         int16_t x     = 0;
 920:lcdlib/daisy_ILI9341.hpp ****         int16_t y     = r;
 921:lcdlib/daisy_ILI9341.hpp **** 
 922:lcdlib/daisy_ILI9341.hpp ****         delta++;
 923:lcdlib/daisy_ILI9341.hpp **** 
 924:lcdlib/daisy_ILI9341.hpp ****         while(x < y)
 925:lcdlib/daisy_ILI9341.hpp ****         {
 926:lcdlib/daisy_ILI9341.hpp ****             if(f >= 0)
 927:lcdlib/daisy_ILI9341.hpp ****             {
 928:lcdlib/daisy_ILI9341.hpp ****                 y--;
 929:lcdlib/daisy_ILI9341.hpp ****                 ddF_y += 2;
 930:lcdlib/daisy_ILI9341.hpp ****                 f += ddF_y;
 931:lcdlib/daisy_ILI9341.hpp ****             }
 932:lcdlib/daisy_ILI9341.hpp ****             x++;
 933:lcdlib/daisy_ILI9341.hpp ****             ddF_x += 2;
 934:lcdlib/daisy_ILI9341.hpp ****             f += ddF_x;
 935:lcdlib/daisy_ILI9341.hpp **** 
 936:lcdlib/daisy_ILI9341.hpp ****             if(cornername & 0x1)
 937:lcdlib/daisy_ILI9341.hpp ****             {
ARM GAS  /var/folders/cl/k1vt3d7567s5t107m3sv9whr0000gn/T//cclnrocj.s 			page 71


 938:lcdlib/daisy_ILI9341.hpp ****                 DrawLine(
 939:lcdlib/daisy_ILI9341.hpp ****                     x0 + x, y0 - y, x0 + x, y0 - y + 2 * y + delta - 1, color);
 940:lcdlib/daisy_ILI9341.hpp ****                 DrawLine(
 941:lcdlib/daisy_ILI9341.hpp ****                     x0 + y, y0 - x, x0 + y, y0 - x + 2 * x + delta - 1, color);
 942:lcdlib/daisy_ILI9341.hpp ****             }
 943:lcdlib/daisy_ILI9341.hpp ****             if(cornername & 0x2)
 944:lcdlib/daisy_ILI9341.hpp ****             {
 945:lcdlib/daisy_ILI9341.hpp ****                 DrawLine(
 946:lcdlib/daisy_ILI9341.hpp ****                     x0 - x, y0 - y, x0 - x, y0 - y + 2 * y + delta - 1, color);
 947:lcdlib/daisy_ILI9341.hpp ****                 DrawLine(
 948:lcdlib/daisy_ILI9341.hpp ****                     x0 - y, y0 - x, x0 - y, y0 - x + 2 * x + delta - 1, color);
 949:lcdlib/daisy_ILI9341.hpp ****             }
 950:lcdlib/daisy_ILI9341.hpp ****         }
 951:lcdlib/daisy_ILI9341.hpp ****     }
 952:lcdlib/daisy_ILI9341.hpp **** 
 953:lcdlib/daisy_ILI9341.hpp ****     /**
 954:lcdlib/daisy_ILI9341.hpp ****      * @brief Moves the 'Cursor' position used for WriteChar, and WriteStr to the specified coordin
 955:lcdlib/daisy_ILI9341.hpp ****      * 
 956:lcdlib/daisy_ILI9341.hpp ****      * 
 957:lcdlib/daisy_ILI9341.hpp ****      * @param x x pos
 958:lcdlib/daisy_ILI9341.hpp ****      * @param y y pos
 959:lcdlib/daisy_ILI9341.hpp ****      */
 960:lcdlib/daisy_ILI9341.hpp ****     void SetCursor(uint16_t x, uint16_t y)
 961:lcdlib/daisy_ILI9341.hpp ****     {
 962:lcdlib/daisy_ILI9341.hpp ****         currentX_ = (x >= width) ? width - 1 : x;
 963:lcdlib/daisy_ILI9341.hpp ****         currentY_ = (y >= height) ? height - 1 : y;
 964:lcdlib/daisy_ILI9341.hpp ****     }
 965:lcdlib/daisy_ILI9341.hpp **** 
 966:lcdlib/daisy_ILI9341.hpp ****     __attribute__((noinline)) void Update()
 967:lcdlib/daisy_ILI9341.hpp ****     {
 968:lcdlib/daisy_ILI9341.hpp ****         Start();
 969:lcdlib/daisy_ILI9341.hpp ****         transport_.SendDataDMA();
 970:lcdlib/daisy_ILI9341.hpp ****     }
 971:lcdlib/daisy_ILI9341.hpp **** 
 972:lcdlib/daisy_ILI9341.hpp ****     bool IsRender()
 973:lcdlib/daisy_ILI9341.hpp ****     {
 974:lcdlib/daisy_ILI9341.hpp ****         if(transport_.dma_busy == false)
 975:lcdlib/daisy_ILI9341.hpp ****         {
 976:lcdlib/daisy_ILI9341.hpp ****             diff = System::GetNow() - screen_update_last_;
 977:lcdlib/daisy_ILI9341.hpp ****             if(diff > screen_update_period_)
 978:lcdlib/daisy_ILI9341.hpp ****             {
 979:lcdlib/daisy_ILI9341.hpp ****                 UpdateFrameRate();
 980:lcdlib/daisy_ILI9341.hpp ****                 screen_update_last_ = System::GetNow();
 981:lcdlib/daisy_ILI9341.hpp ****                 return true;
 982:lcdlib/daisy_ILI9341.hpp ****             }
 983:lcdlib/daisy_ILI9341.hpp ****         }
 984:lcdlib/daisy_ILI9341.hpp **** 
 985:lcdlib/daisy_ILI9341.hpp ****         return false;
 986:lcdlib/daisy_ILI9341.hpp ****     }
 987:lcdlib/daisy_ILI9341.hpp **** 
 988:lcdlib/daisy_ILI9341.hpp ****     void UpdateFrameRate()
 989:lcdlib/daisy_ILI9341.hpp ****     {
 990:lcdlib/daisy_ILI9341.hpp ****         ++frames;
 991:lcdlib/daisy_ILI9341.hpp ****         if(System::GetNow() - fps_update_last_ > 1000)
 992:lcdlib/daisy_ILI9341.hpp ****         {
 993:lcdlib/daisy_ILI9341.hpp ****             fps              = frames;
 994:lcdlib/daisy_ILI9341.hpp ****             frames           = 0;
ARM GAS  /var/folders/cl/k1vt3d7567s5t107m3sv9whr0000gn/T//cclnrocj.s 			page 72


 995:lcdlib/daisy_ILI9341.hpp ****             fps_update_last_ = System::GetNow();
 996:lcdlib/daisy_ILI9341.hpp ****         }
 997:lcdlib/daisy_ILI9341.hpp ****     }
 998:lcdlib/daisy_ILI9341.hpp **** 
 999:lcdlib/daisy_ILI9341.hpp ****     uint16_t Fps() const { return fps; }
1000:lcdlib/daisy_ILI9341.hpp **** 
1001:lcdlib/daisy_ILI9341.hpp ****     void TrimString(char*    str,
1002:lcdlib/daisy_ILI9341.hpp ****                     char*    str_trimmed,
1003:lcdlib/daisy_ILI9341.hpp ****                     uint16_t str_len,
1004:lcdlib/daisy_ILI9341.hpp ****                     uint16_t str_width,
1005:lcdlib/daisy_ILI9341.hpp ****                     FontDef  font) const
1006:lcdlib/daisy_ILI9341.hpp ****     {
1007:lcdlib/daisy_ILI9341.hpp ****         if(str_len <= str_width)
1008:lcdlib/daisy_ILI9341.hpp ****         {
1009:lcdlib/daisy_ILI9341.hpp ****             return;
1010:lcdlib/daisy_ILI9341.hpp ****         }
1011:lcdlib/daisy_ILI9341.hpp **** 
1012:lcdlib/daisy_ILI9341.hpp ****         uint16_t max_chars = str_width / font.FontWidth;
1013:lcdlib/daisy_ILI9341.hpp ****         strncpy(str_trimmed, str, max_chars);
1014:lcdlib/daisy_ILI9341.hpp ****         str_trimmed[max_chars] = '\0';
1015:lcdlib/daisy_ILI9341.hpp ****     }
1016:lcdlib/daisy_ILI9341.hpp **** 
1017:lcdlib/daisy_ILI9341.hpp ****   private:
1018:lcdlib/daisy_ILI9341.hpp ****     void Start() { transport_.SetAddressWindow(0, 0, width - 1, height - 1); }
1019:lcdlib/daisy_ILI9341.hpp **** 
1020:lcdlib/daisy_ILI9341.hpp ****     void DrawPixel(uint_fast16_t x,
1021:lcdlib/daisy_ILI9341.hpp ****                    uint_fast16_t y,
1022:lcdlib/daisy_ILI9341.hpp ****                    uint8_t       color,
1023:lcdlib/daisy_ILI9341.hpp ****                    uint8_t       alpha = 255)
1024:lcdlib/daisy_ILI9341.hpp ****     {
1025:lcdlib/daisy_ILI9341.hpp ****         if(x >= width || y >= height)
 2044              		.loc 6 1025 17 view .LVU643
 2045 0022 B0F854E0 		ldrh	lr, [r0, #84]
 2046              	.LBE582:
 2047              	.LBE581:
 590:lcdlib/daisy_ILI9341.hpp ****         auto signX  = ((x1 < x2) ? 1 : -1);
 2048              		.loc 6 590 44 view .LVU644
 2049 0026 A41A     		subs	r4, r4, r2
 589:lcdlib/daisy_ILI9341.hpp ****         auto deltaY = abs((int_fast16_t)y2 - (int_fast16_t)y1);
 2050              		.loc 6 589 14 view .LVU645
 2051 0028 002E     		cmp	r6, #0
 590:lcdlib/daisy_ILI9341.hpp ****         auto signX  = ((x1 < x2) ? 1 : -1);
 2052              		.loc 6 590 14 view .LVU646
 2053 002a 84EAE475 		eor	r5, r4, r4, asr #31
 589:lcdlib/daisy_ILI9341.hpp ****         auto deltaY = abs((int_fast16_t)y2 - (int_fast16_t)y1);
 2054              		.loc 6 589 14 view .LVU647
 2055 002e B8BF     		it	lt
 2056 0030 7642     		rsblt	r6, r6, #0
 2057              	.LVL159:
 590:lcdlib/daisy_ILI9341.hpp ****         auto signX  = ((x1 < x2) ? 1 : -1);
 2058              		.loc 6 590 9 is_stmt 1 view .LVU648
 590:lcdlib/daisy_ILI9341.hpp ****         auto signX  = ((x1 < x2) ? 1 : -1);
 2059              		.loc 6 590 14 is_stmt 0 view .LVU649
 2060 0032 A5EBE475 		sub	r5, r5, r4, asr #31
 2061 0036 2C46     		mov	r4, r5
 2062 0038 0295     		str	r5, [sp, #8]
 2063              	.LVL160:
ARM GAS  /var/folders/cl/k1vt3d7567s5t107m3sv9whr0000gn/T//cclnrocj.s 			page 73


 591:lcdlib/daisy_ILI9341.hpp ****         auto signX  = ((x1 < x2) ? 1 : -1);
 2064              		.loc 6 591 9 is_stmt 1 view .LVU650
 591:lcdlib/daisy_ILI9341.hpp ****         auto signX  = ((x1 < x2) ? 1 : -1);
 2065              		.loc 6 591 34 is_stmt 0 view .LVU651
 2066 003a 9942     		cmp	r1, r3
 2067 003c 34BF     		ite	cc
 2068 003e 0125     		movcc	r5, #1
 2069 0040 4FF0FF35 		movcs	r5, #-1
 593:lcdlib/daisy_ILI9341.hpp **** 
 2070              		.loc 6 593 14 view .LVU652
 2071 0044 A6EB040C 		sub	ip, r6, r4
 591:lcdlib/daisy_ILI9341.hpp ****         auto signX  = ((x1 < x2) ? 1 : -1);
 2072              		.loc 6 591 34 view .LVU653
 2073 0048 0395     		str	r5, [sp, #12]
 2074              	.LVL161:
 592:lcdlib/daisy_ILI9341.hpp ****         auto error  = deltaX - deltaY;
 2075              		.loc 6 592 9 is_stmt 1 view .LVU654
 592:lcdlib/daisy_ILI9341.hpp ****         auto error  = deltaX - deltaY;
 2076              		.loc 6 592 34 is_stmt 0 view .LVU655
 2077 004a 129D     		ldr	r5, [sp, #72]
 2078              	.LVL162:
 592:lcdlib/daisy_ILI9341.hpp ****         auto error  = deltaX - deltaY;
 2079              		.loc 6 592 34 view .LVU656
 2080 004c AA42     		cmp	r2, r5
 2081 004e 34BF     		ite	cc
 2082 0050 0125     		movcc	r5, #1
 2083 0052 4FF0FF35 		movcs	r5, #-1
 2084              	.LBB606:
 2085              	.LBB603:
 2086              		.loc 6 1025 9 view .LVU657
 2087 0056 7345     		cmp	r3, lr
 2088              	.LBE603:
 2089              	.LBE606:
 592:lcdlib/daisy_ILI9341.hpp ****         auto error  = deltaX - deltaY;
 2090              		.loc 6 592 34 view .LVU658
 2091 0058 0495     		str	r5, [sp, #16]
 2092              	.LVL163:
 593:lcdlib/daisy_ILI9341.hpp **** 
 2093              		.loc 6 593 9 is_stmt 1 view .LVU659
 595:lcdlib/daisy_ILI9341.hpp **** 
 2094              		.loc 6 595 9 view .LVU660
 2095              	.LBB607:
 2096              	.LBI581:
1020:lcdlib/daisy_ILI9341.hpp ****                    uint_fast16_t y,
 2097              		.loc 6 1020 10 view .LVU661
 2098              	.LBB604:
 2099              		.loc 6 1025 9 view .LVU662
 2100 005a 4ED2     		bcs	.L65
 2101              		.loc 6 1025 31 is_stmt 0 view .LVU663
 2102 005c B0F85640 		ldrh	r4, [r0, #86]
 2103              	.LVL164:
 2104              		.loc 6 1025 23 view .LVU664
 2105 0060 129D     		ldr	r5, [sp, #72]
 2106              	.LVL165:
 2107              		.loc 6 1025 23 view .LVU665
 2108 0062 A542     		cmp	r5, r4
 2109 0064 49D2     		bcs	.L65
ARM GAS  /var/folders/cl/k1vt3d7567s5t107m3sv9whr0000gn/T//cclnrocj.s 			page 74


1026:lcdlib/daisy_ILI9341.hpp ****             return;
1027:lcdlib/daisy_ILI9341.hpp **** 
1028:lcdlib/daisy_ILI9341.hpp ****         auto id = 2 * (x + y * width);
 2110              		.loc 6 1028 9 is_stmt 1 view .LVU666
 2111              		.loc 6 1028 26 is_stmt 0 view .LVU667
 2112 0066 129C     		ldr	r4, [sp, #72]
 2113 0068 0EFB0439 		mla	r9, lr, r4, r3
 2114              	.LBB583:
 2115              	.LBB584:
 202:lcdlib/daisy_ILI9341.hpp **** 
 2116              		.loc 6 202 14 view .LVU668
 2117 006c 00EB4B04 		add	r4, r0, fp, lsl #1
 2118              	.LBE584:
 2119              	.LBE583:
 2120              		.loc 6 1028 14 view .LVU669
 2121 0070 4FEA4905 		lsl	r5, r9, #1
 2122              	.LBB600:
 2123              	.LBB597:
 202:lcdlib/daisy_ILI9341.hpp **** 
 2124              		.loc 6 202 14 view .LVU670
 2125 0074 A48B     		ldrh	r4, [r4, #28]
 2126              	.LBE597:
 2127              	.LBE600:
 2128              		.loc 6 1028 14 view .LVU671
 2129 0076 0095     		str	r5, [sp]
 2130              	.LVL166:
1029:lcdlib/daisy_ILI9341.hpp **** 
1030:lcdlib/daisy_ILI9341.hpp ****         // NOTE: Probably we should check the color id before accessing the array
1031:lcdlib/daisy_ILI9341.hpp ****         transport_.PaintPixel(id, color, alpha);
 2131              		.loc 6 1031 9 is_stmt 1 view .LVU672
 2132              	.LBB601:
 2133              	.LBI583:
 200:lcdlib/daisy_ILI9341.hpp ****     {
 2134              		.loc 6 200 10 view .LVU673
 2135              	.LBB598:
 202:lcdlib/daisy_ILI9341.hpp **** 
 2136              		.loc 6 202 9 view .LVU674
 204:lcdlib/daisy_ILI9341.hpp ****         {
 2137              		.loc 6 204 9 view .LVU675
 2138              	.LBB585:
 2139 0078 019D     		ldr	r5, [sp, #4]
 2140              	.LVL167:
 204:lcdlib/daisy_ILI9341.hpp ****         {
 2141              		.loc 6 204 9 is_stmt 0 view .LVU676
 2142 007a FF2D     		cmp	r5, #255
 2143 007c 00F0FA80 		beq	.L68
 2144              	.LBB586:
 206:lcdlib/daisy_ILI9341.hpp ****             color         = Blend565(color, bg_color, alpha);
 2145              		.loc 6 206 13 is_stmt 1 view .LVU677
 2146              	.LBB587:
 2147              	.LBB588:
 249:lcdlib/daisy_ILI9341.hpp ****         // "beta" for background multiplication; (6bit+1);
 2148              		.loc 6 249 24 is_stmt 0 view .LVU678
 2149 0080 019D     		ldr	r5, [sp, #4]
 2150              	.LBE588:
 2151              	.LBE587:
 206:lcdlib/daisy_ILI9341.hpp ****             color         = Blend565(color, bg_color, alpha);
ARM GAS  /var/folders/cl/k1vt3d7567s5t107m3sv9whr0000gn/T//cclnrocj.s 			page 75


 2152              		.loc 6 206 52 view .LVU679
 2153 0082 DFF8ACA2 		ldr	r10, .L69+8
 2154              	.LBB593:
 2155              	.LBB589:
 249:lcdlib/daisy_ILI9341.hpp ****         // "beta" for background multiplication; (6bit+1);
 2156              		.loc 6 249 24 view .LVU680
 2157 0086 AF1C     		adds	r7, r5, #2
 255:lcdlib/daisy_ILI9341.hpp ****                              + beta * (uint32_t)(bg & MASK_RB))
 2158              		.loc 6 255 38 view .LVU681
 2159 0088 24F4FC65 		bic	r5, r4, #2016
 258:lcdlib/daisy_ILI9341.hpp ****                               & MASK_MUL_G))
 2160              		.loc 6 258 44 view .LVU682
 2161 008c 04F4FC64 		and	r4, r4, #2016
 2162              	.LVL168:
 249:lcdlib/daisy_ILI9341.hpp ****         // "beta" for background multiplication; (6bit+1);
 2163              		.loc 6 249 29 view .LVU683
 2164 0090 4FEAA708 		asr	r8, r7, #2
 255:lcdlib/daisy_ILI9341.hpp ****                              + beta * (uint32_t)(bg & MASK_RB))
 2165              		.loc 6 255 38 view .LVU684
 2166 0094 0595     		str	r5, [sp, #20]
 258:lcdlib/daisy_ILI9341.hpp ****                               & MASK_MUL_G))
 2167              		.loc 6 258 44 view .LVU685
 2168 0096 0694     		str	r4, [sp, #24]
 2169              	.LBE589:
 2170              	.LBE593:
 206:lcdlib/daisy_ILI9341.hpp ****             color         = Blend565(color, bg_color, alpha);
 2171              		.loc 6 206 52 view .LVU686
 2172 0098 1AF81940 		ldrb	r4, [r10, r9, lsl #1]	@ zero_extendqisi2
 2173              	.LBB594:
 2174              	.LBB590:
 252:lcdlib/daisy_ILI9341.hpp ****         // so (0..64)*alpha + (0..64)*beta always in 0..64
 2175              		.loc 6 252 17 view .LVU687
 2176 009c C8F1400E 		rsb	lr, r8, #64
 2177              	.LBE590:
 2178              	.LBE594:
 206:lcdlib/daisy_ILI9341.hpp ****             color         = Blend565(color, bg_color, alpha);
 2179              		.loc 6 206 18 view .LVU688
 2180 00a0 00EB4404 		add	r4, r0, r4, lsl #1
 2181              	.LBB595:
 2182              	.LBB591:
 252:lcdlib/daisy_ILI9341.hpp ****         // so (0..64)*alpha + (0..64)*beta always in 0..64
 2183              		.loc 6 252 17 view .LVU689
 2184 00a4 5FFA8EFE 		uxtb	lr, lr
 2185              	.LBE591:
 2186              	.LBE595:
 206:lcdlib/daisy_ILI9341.hpp ****             color         = Blend565(color, bg_color, alpha);
 2187              		.loc 6 206 18 view .LVU690
 2188 00a8 A58B     		ldrh	r5, [r4, #28]
 2189              	.LVL169:
 207:lcdlib/daisy_ILI9341.hpp ****         }
 2190              		.loc 6 207 13 is_stmt 1 view .LVU691
 2191              	.LBB596:
 2192              	.LBI587:
 244:lcdlib/daisy_ILI9341.hpp ****     {
 2193              		.loc 6 244 14 view .LVU692
 2194              	.LBB592:
 249:lcdlib/daisy_ILI9341.hpp ****         // "beta" for background multiplication; (6bit+1);
ARM GAS  /var/folders/cl/k1vt3d7567s5t107m3sv9whr0000gn/T//cclnrocj.s 			page 76


 2195              		.loc 6 249 9 view .LVU693
 252:lcdlib/daisy_ILI9341.hpp ****         // so (0..64)*alpha + (0..64)*beta always in 0..64
 2196              		.loc 6 252 9 view .LVU694
 255:lcdlib/daisy_ILI9341.hpp ****                              + beta * (uint32_t)(bg & MASK_RB))
 2197              		.loc 6 255 9 view .LVU695
 256:lcdlib/daisy_ILI9341.hpp ****                             & MASK_MUL_RB)
 2198              		.loc 6 256 39 is_stmt 0 view .LVU696
 2199 00aa 25F4FC64 		bic	r4, r5, #2016
 258:lcdlib/daisy_ILI9341.hpp ****                               & MASK_MUL_G))
 2200              		.loc 6 258 67 view .LVU697
 2201 00ae 05F4FC65 		and	r5, r5, #2016
 2202              	.LVL170:
 256:lcdlib/daisy_ILI9341.hpp ****                             & MASK_MUL_RB)
 2203              		.loc 6 256 37 view .LVU698
 2204 00b2 0EFB04F4 		mul	r4, lr, r4
 258:lcdlib/daisy_ILI9341.hpp ****                               & MASK_MUL_G))
 2205              		.loc 6 258 61 view .LVU699
 2206 00b6 0EFB05FE 		mul	lr, lr, r5
 2207              	.LVL171:
 256:lcdlib/daisy_ILI9341.hpp ****                             & MASK_MUL_RB)
 2208              		.loc 6 256 30 view .LVU700
 2209 00ba 059D     		ldr	r5, [sp, #20]
 2210 00bc 08FB0544 		mla	r4, r8, r5, r4
 258:lcdlib/daisy_ILI9341.hpp ****                               & MASK_MUL_G))
 2211              		.loc 6 258 54 view .LVU701
 2212 00c0 069D     		ldr	r5, [sp, #24]
 257:lcdlib/daisy_ILI9341.hpp ****                            | ((alpha * (fg & MASK_G) + beta * (bg & MASK_G))
 2213              		.loc 6 257 29 view .LVU702
 2214 00c2 24F07F44 		bic	r4, r4, #-16777216
 258:lcdlib/daisy_ILI9341.hpp ****                               & MASK_MUL_G))
 2215              		.loc 6 258 54 view .LVU703
 2216 00c6 08FB05E5 		mla	r5, r8, r5, lr
 257:lcdlib/daisy_ILI9341.hpp ****                            | ((alpha * (fg & MASK_G) + beta * (bg & MASK_G))
 2217              		.loc 6 257 29 view .LVU704
 2218 00ca 24F44104 		bic	r4, r4, #12648448
 259:lcdlib/daisy_ILI9341.hpp ****                           >> 6);
 2219              		.loc 6 259 31 view .LVU705
 2220 00ce 05F4FC35 		and	r5, r5, #129024
 257:lcdlib/daisy_ILI9341.hpp ****                            | ((alpha * (fg & MASK_G) + beta * (bg & MASK_G))
 2221              		.loc 6 257 29 view .LVU706
 2222 00d2 24F47844 		bic	r4, r4, #63488
 2223 00d6 24F03F04 		bic	r4, r4, #63
 258:lcdlib/daisy_ILI9341.hpp ****                               & MASK_MUL_G))
 2224              		.loc 6 258 28 view .LVU707
 2225 00da 2C43     		orrs	r4, r4, r5
 260:lcdlib/daisy_ILI9341.hpp ****     }
 2226              		.loc 6 260 31 view .LVU708
 2227 00dc A409     		lsrs	r4, r4, #6
 2228              	.LVL172:
 2229              	.L33:
 260:lcdlib/daisy_ILI9341.hpp ****     }
 2230              		.loc 6 260 31 view .LVU709
 2231              	.LBE592:
 2232              	.LBE596:
 2233              	.LBE586:
 2234              	.LBE585:
 210:lcdlib/daisy_ILI9341.hpp **** 
ARM GAS  /var/folders/cl/k1vt3d7567s5t107m3sv9whr0000gn/T//cclnrocj.s 			page 77


 2235              		.loc 6 210 9 is_stmt 1 view .LVU710
 212:lcdlib/daisy_ILI9341.hpp ****         frame_buffer[id + 1] = color & 0xFF;
 2236              		.loc 6 212 30 is_stmt 0 view .LVU711
 2237 00de DFF84CE2 		ldr	lr, .L69+4
 212:lcdlib/daisy_ILI9341.hpp ****         frame_buffer[id + 1] = color & 0xFF;
 2238              		.loc 6 212 38 view .LVU712
 2239 00e2 4FEA1428 		lsr	r8, r4, #8
 213:lcdlib/daisy_ILI9341.hpp ****     }
 2240              		.loc 6 213 30 view .LVU713
 2241 00e6 009D     		ldr	r5, [sp]
 212:lcdlib/daisy_ILI9341.hpp ****         frame_buffer[id + 1] = color & 0xFF;
 2242              		.loc 6 212 30 view .LVU714
 2243 00e8 0EF81980 		strb	r8, [lr, r9, lsl #1]
 213:lcdlib/daisy_ILI9341.hpp ****     }
 2244              		.loc 6 213 30 view .LVU715
 2245 00ec 7544     		add	r5, r5, lr
 210:lcdlib/daisy_ILI9341.hpp **** 
 2246              		.loc 6 210 23 view .LVU716
 2247 00ee 0AF819B0 		strb	fp, [r10, r9, lsl #1]
 212:lcdlib/daisy_ILI9341.hpp ****         frame_buffer[id + 1] = color & 0xFF;
 2248              		.loc 6 212 9 is_stmt 1 view .LVU717
 213:lcdlib/daisy_ILI9341.hpp ****     }
 2249              		.loc 6 213 9 view .LVU718
 213:lcdlib/daisy_ILI9341.hpp ****     }
 2250              		.loc 6 213 30 is_stmt 0 view .LVU719
 2251 00f2 6C70     		strb	r4, [r5, #1]
 2252              	.LBE598:
 2253              	.LBE601:
 2254              	.LBE604:
 2255              	.LBE607:
 2256              	.LBB608:
 2257              	.LBB609:
 2258              	.LBB610:
1025:lcdlib/daisy_ILI9341.hpp ****             return;
 2259              		.loc 6 1025 17 view .LVU720
 2260 00f4 B0F854E0 		ldrh	lr, [r0, #84]
 2261              	.LBE610:
 2262              	.LBE609:
 2263              	.LBE608:
 2264              	.LBB651:
 2265              	.LBB605:
 2266              	.LBB602:
 2267              	.LBB599:
 214:lcdlib/daisy_ILI9341.hpp **** 
 2268              		.loc 6 214 5 view .LVU721
 2269 00f8 01E0     		b	.L32
 2270              	.LVL173:
 2271              	.L65:
 214:lcdlib/daisy_ILI9341.hpp **** 
 2272              		.loc 6 214 5 view .LVU722
 2273 00fa 019C     		ldr	r4, [sp, #4]
 2274 00fc A71C     		adds	r7, r4, #2
 2275              	.L32:
 2276              	.LVL174:
 214:lcdlib/daisy_ILI9341.hpp **** 
 2277              		.loc 6 214 5 view .LVU723
 2278              	.LBE599:
ARM GAS  /var/folders/cl/k1vt3d7567s5t107m3sv9whr0000gn/T//cclnrocj.s 			page 78


 2279              	.LBE602:
 2280              	.LBE605:
 2281              	.LBE651:
 597:lcdlib/daisy_ILI9341.hpp ****         {
 2282              		.loc 6 597 9 is_stmt 1 view .LVU724
 597:lcdlib/daisy_ILI9341.hpp ****         {
 2283              		.loc 6 597 26 view .LVU725
 2284              	.LBB652:
 2285              	.LBB647:
 2286              	.LBB643:
 2287              	.LBB611:
 2288              	.LBB612:
 2289              	.LBB613:
 2290              	.LBB614:
 2291              	.LBB615:
 2292              	.LBB616:
 249:lcdlib/daisy_ILI9341.hpp ****         // "beta" for background multiplication; (6bit+1);
 2293              		.loc 6 249 29 is_stmt 0 view .LVU726
 2294 00fe BC10     		asrs	r4, r7, #2
 2295              	.LBE616:
 2296              	.LBE615:
 2297              	.LBE614:
 2298              	.LBE613:
 2299              	.LBE612:
 2300              	.LBE611:
 2301              	.LBE643:
 2302              	.LBE647:
 601:lcdlib/daisy_ILI9341.hpp ****             {
 2303              		.loc 6 601 25 view .LVU727
 2304 0100 029D     		ldr	r5, [sp, #8]
 2305 0102 0093     		str	r3, [sp]
 2306              	.LBB648:
 2307              	.LBB644:
 2308              	.LBB638:
 2309              	.LBB633:
 2310              	.LBB629:
 2311              	.LBB625:
 2312              	.LBB621:
 2313              	.LBB617:
 249:lcdlib/daisy_ILI9341.hpp ****         // "beta" for background multiplication; (6bit+1);
 2314              		.loc 6 249 29 view .LVU728
 2315 0104 0594     		str	r4, [sp, #20]
 252:lcdlib/daisy_ILI9341.hpp ****         // so (0..64)*alpha + (0..64)*beta always in 0..64
 2316              		.loc 6 252 17 view .LVU729
 2317 0106 C4F14004 		rsb	r4, r4, #64
 2318              	.LBE617:
 2319              	.LBE621:
 2320              	.LBE625:
 2321              	.LBE629:
 2322              	.LBE633:
 2323              	.LBE638:
 2324              	.LBE644:
 2325              	.LBE648:
 601:lcdlib/daisy_ILI9341.hpp ****             {
 2326              		.loc 6 601 25 view .LVU730
 2327 010a C5F1000A 		rsb	r10, r5, #0
 2328              	.LBB649:
ARM GAS  /var/folders/cl/k1vt3d7567s5t107m3sv9whr0000gn/T//cclnrocj.s 			page 79


 2329              	.LBB645:
 2330              	.LBB639:
 2331              	.LBB634:
 2332              	.LBB630:
 2333              	.LBB626:
 2334              	.LBB622:
 2335              	.LBB618:
 252:lcdlib/daisy_ILI9341.hpp ****         // so (0..64)*alpha + (0..64)*beta always in 0..64
 2336              		.loc 6 252 17 view .LVU731
 2337 010e E4B2     		uxtb	r4, r4
 2338 0110 0694     		str	r4, [sp, #24]
 2339 0112 01E0     		b	.L34
 2340              	.LVL175:
 2341              	.L42:
 252:lcdlib/daisy_ILI9341.hpp ****         // so (0..64)*alpha + (0..64)*beta always in 0..64
 2342              		.loc 6 252 17 view .LVU732
 2343              	.LBE618:
 2344              	.LBE622:
 2345              	.LBE626:
 2346              	.LBE630:
 2347              	.LBE634:
 2348              	.LBE639:
1025:lcdlib/daisy_ILI9341.hpp ****             return;
 2349              		.loc 6 1025 17 view .LVU733
 2350 0114 B0F854E0 		ldrh	lr, [r0, #84]
 2351              	.L34:
1025:lcdlib/daisy_ILI9341.hpp ****             return;
 2352              		.loc 6 1025 17 view .LVU734
 2353              	.LBE645:
 2354              	.LBE649:
 599:lcdlib/daisy_ILI9341.hpp ****             auto error2 = error * 2;
 2355              		.loc 6 599 13 is_stmt 1 view .LVU735
 2356              	.LVL176:
 2357              	.LBB650:
 2358              	.LBI609:
1020:lcdlib/daisy_ILI9341.hpp ****                    uint_fast16_t y,
 2359              		.loc 6 1020 10 view .LVU736
 2360              	.LBB646:
1025:lcdlib/daisy_ILI9341.hpp ****             return;
 2361              		.loc 6 1025 9 view .LVU737
 2362 0118 8E45     		cmp	lr, r1
 2363 011a 3FD9     		bls	.L36
1025:lcdlib/daisy_ILI9341.hpp ****             return;
 2364              		.loc 6 1025 31 is_stmt 0 view .LVU738
 2365 011c B0F85640 		ldrh	r4, [r0, #86]
1025:lcdlib/daisy_ILI9341.hpp ****             return;
 2366              		.loc 6 1025 23 view .LVU739
 2367 0120 9442     		cmp	r4, r2
 2368 0122 3BD9     		bls	.L36
1028:lcdlib/daisy_ILI9341.hpp **** 
 2369              		.loc 6 1028 9 is_stmt 1 view .LVU740
 2370              	.LBB640:
 2371              	.LBB635:
 202:lcdlib/daisy_ILI9341.hpp **** 
 2372              		.loc 6 202 14 is_stmt 0 view .LVU741
 2373 0124 00EB4B04 		add	r4, r0, fp, lsl #1
 2374              	.LBE635:
ARM GAS  /var/folders/cl/k1vt3d7567s5t107m3sv9whr0000gn/T//cclnrocj.s 			page 80


 2375              	.LBE640:
1028:lcdlib/daisy_ILI9341.hpp **** 
 2376              		.loc 6 1028 26 view .LVU742
 2377 0128 02FB0E15 		mla	r5, r2, lr, r1
 2378              	.LBB641:
 2379              	.LBB636:
 2380              	.LBB631:
 2381              	.LBB627:
 206:lcdlib/daisy_ILI9341.hpp ****             color         = Blend565(color, bg_color, alpha);
 2382              		.loc 6 206 52 view .LVU743
 2383 012c DFF80082 		ldr	r8, .L69+8
 2384              	.LBE627:
 2385              	.LBE631:
 202:lcdlib/daisy_ILI9341.hpp **** 
 2386              		.loc 6 202 14 view .LVU744
 2387 0130 B4F81C90 		ldrh	r9, [r4, #28]
 2388              	.LBE636:
 2389              	.LBE641:
1028:lcdlib/daisy_ILI9341.hpp **** 
 2390              		.loc 6 1028 14 view .LVU745
 2391 0134 4FEA450E 		lsl	lr, r5, #1
 2392              	.LVL177:
 2393              		.loc 6 1031 9 is_stmt 1 view .LVU746
 2394              	.LBB642:
 2395              	.LBI611:
 200:lcdlib/daisy_ILI9341.hpp ****     {
 2396              		.loc 6 200 10 view .LVU747
 2397              	.LBB637:
 202:lcdlib/daisy_ILI9341.hpp **** 
 2398              		.loc 6 202 9 view .LVU748
 204:lcdlib/daisy_ILI9341.hpp ****         {
 2399              		.loc 6 204 9 view .LVU749
 2400              	.LBB632:
 2401 0138 019C     		ldr	r4, [sp, #4]
 2402 013a FF2C     		cmp	r4, #255
 2403 013c 24D0     		beq	.L37
 2404              	.LBB628:
 206:lcdlib/daisy_ILI9341.hpp ****             color         = Blend565(color, bg_color, alpha);
 2405              		.loc 6 206 13 view .LVU750
 2406              	.LBB623:
 2407              	.LBB619:
 255:lcdlib/daisy_ILI9341.hpp ****                              + beta * (uint32_t)(bg & MASK_RB))
 2408              		.loc 6 255 38 is_stmt 0 view .LVU751
 2409 013e 29F4FC64 		bic	r4, r9, #2016
 258:lcdlib/daisy_ILI9341.hpp ****                               & MASK_MUL_G))
 2410              		.loc 6 258 44 view .LVU752
 2411 0142 09F4FC69 		and	r9, r9, #2016
 2412              	.LVL178:
 255:lcdlib/daisy_ILI9341.hpp ****                              + beta * (uint32_t)(bg & MASK_RB))
 2413              		.loc 6 255 38 view .LVU753
 2414 0146 2346     		mov	r3, r4
 2415              	.LBE619:
 2416              	.LBE623:
 206:lcdlib/daisy_ILI9341.hpp ****             color         = Blend565(color, bg_color, alpha);
 2417              		.loc 6 206 52 view .LVU754
 2418 0148 18F81540 		ldrb	r4, [r8, r5, lsl #1]	@ zero_extendqisi2
 206:lcdlib/daisy_ILI9341.hpp ****             color         = Blend565(color, bg_color, alpha);
ARM GAS  /var/folders/cl/k1vt3d7567s5t107m3sv9whr0000gn/T//cclnrocj.s 			page 81


 2419              		.loc 6 206 18 view .LVU755
 2420 014c 00EB4404 		add	r4, r0, r4, lsl #1
 2421 0150 A78B     		ldrh	r7, [r4, #28]
 2422              	.LVL179:
 207:lcdlib/daisy_ILI9341.hpp ****         }
 2423              		.loc 6 207 13 is_stmt 1 view .LVU756
 2424              	.LBB624:
 2425              	.LBI615:
 244:lcdlib/daisy_ILI9341.hpp ****     {
 2426              		.loc 6 244 14 view .LVU757
 2427              	.LBB620:
 249:lcdlib/daisy_ILI9341.hpp ****         // "beta" for background multiplication; (6bit+1);
 2428              		.loc 6 249 9 view .LVU758
 252:lcdlib/daisy_ILI9341.hpp ****         // so (0..64)*alpha + (0..64)*beta always in 0..64
 2429              		.loc 6 252 9 view .LVU759
 255:lcdlib/daisy_ILI9341.hpp ****                              + beta * (uint32_t)(bg & MASK_RB))
 2430              		.loc 6 255 9 view .LVU760
 256:lcdlib/daisy_ILI9341.hpp ****                             & MASK_MUL_RB)
 2431              		.loc 6 256 39 is_stmt 0 view .LVU761
 2432 0152 27F4FC64 		bic	r4, r7, #2016
 258:lcdlib/daisy_ILI9341.hpp ****                               & MASK_MUL_G))
 2433              		.loc 6 258 67 view .LVU762
 2434 0156 07F4FC67 		and	r7, r7, #2016
 2435              	.LVL180:
 258:lcdlib/daisy_ILI9341.hpp ****                               & MASK_MUL_G))
 2436              		.loc 6 258 67 view .LVU763
 2437 015a 0797     		str	r7, [sp, #28]
 256:lcdlib/daisy_ILI9341.hpp ****                             & MASK_MUL_RB)
 2438              		.loc 6 256 37 view .LVU764
 2439 015c 069F     		ldr	r7, [sp, #24]
 2440 015e 07FB04F4 		mul	r4, r7, r4
 256:lcdlib/daisy_ILI9341.hpp ****                             & MASK_MUL_RB)
 2441              		.loc 6 256 30 view .LVU765
 2442 0162 059F     		ldr	r7, [sp, #20]
 2443 0164 07FB0344 		mla	r4, r7, r3, r4
 257:lcdlib/daisy_ILI9341.hpp ****                            | ((alpha * (fg & MASK_G) + beta * (bg & MASK_G))
 2444              		.loc 6 257 29 view .LVU766
 2445 0168 6F4B     		ldr	r3, .L69
 2446 016a 2340     		ands	r3, r3, r4
 258:lcdlib/daisy_ILI9341.hpp ****                               & MASK_MUL_G))
 2447              		.loc 6 258 61 view .LVU767
 2448 016c DDE90674 		ldrd	r7, r4, [sp, #24]
 2449 0170 07FB04F4 		mul	r4, r7, r4
 2450 0174 2746     		mov	r7, r4
 258:lcdlib/daisy_ILI9341.hpp ****                               & MASK_MUL_G))
 2451              		.loc 6 258 54 view .LVU768
 2452 0176 059C     		ldr	r4, [sp, #20]
 2453 0178 04FB0977 		mla	r7, r4, r9, r7
 259:lcdlib/daisy_ILI9341.hpp ****                           >> 6);
 2454              		.loc 6 259 31 view .LVU769
 2455 017c 07F4FC37 		and	r7, r7, #129024
 258:lcdlib/daisy_ILI9341.hpp ****                               & MASK_MUL_G))
 2456              		.loc 6 258 28 view .LVU770
 2457 0180 43EA0704 		orr	r4, r3, r7
 260:lcdlib/daisy_ILI9341.hpp ****     }
 2458              		.loc 6 260 31 view .LVU771
 2459 0184 4FEA9419 		lsr	r9, r4, #6
ARM GAS  /var/folders/cl/k1vt3d7567s5t107m3sv9whr0000gn/T//cclnrocj.s 			page 82


 2460              	.LVL181:
 2461              	.L37:
 260:lcdlib/daisy_ILI9341.hpp ****     }
 2462              		.loc 6 260 31 view .LVU772
 2463              	.LBE620:
 2464              	.LBE624:
 2465              	.LBE628:
 2466              	.LBE632:
 210:lcdlib/daisy_ILI9341.hpp **** 
 2467              		.loc 6 210 9 is_stmt 1 view .LVU773
 212:lcdlib/daisy_ILI9341.hpp ****         frame_buffer[id + 1] = color & 0xFF;
 2468              		.loc 6 212 30 is_stmt 0 view .LVU774
 2469 0188 684C     		ldr	r4, .L69+4
 212:lcdlib/daisy_ILI9341.hpp ****         frame_buffer[id + 1] = color & 0xFF;
 2470              		.loc 6 212 38 view .LVU775
 2471 018a 4FEA1927 		lsr	r7, r9, #8
 210:lcdlib/daisy_ILI9341.hpp **** 
 2472              		.loc 6 210 23 view .LVU776
 2473 018e 08F815B0 		strb	fp, [r8, r5, lsl #1]
 212:lcdlib/daisy_ILI9341.hpp ****         frame_buffer[id + 1] = color & 0xFF;
 2474              		.loc 6 212 9 is_stmt 1 view .LVU777
 213:lcdlib/daisy_ILI9341.hpp ****     }
 2475              		.loc 6 213 30 is_stmt 0 view .LVU778
 2476 0192 A644     		add	lr, lr, r4
 2477              	.LVL182:
 212:lcdlib/daisy_ILI9341.hpp ****         frame_buffer[id + 1] = color & 0xFF;
 2478              		.loc 6 212 30 view .LVU779
 2479 0194 04F81570 		strb	r7, [r4, r5, lsl #1]
 213:lcdlib/daisy_ILI9341.hpp ****     }
 2480              		.loc 6 213 9 is_stmt 1 view .LVU780
 213:lcdlib/daisy_ILI9341.hpp ****     }
 2481              		.loc 6 213 30 is_stmt 0 view .LVU781
 2482 0198 8EF80190 		strb	r9, [lr, #1]
 2483              	.LVL183:
 2484              	.L36:
 213:lcdlib/daisy_ILI9341.hpp ****     }
 2485              		.loc 6 213 30 view .LVU782
 2486              	.LBE637:
 2487              	.LBE642:
 2488              	.LBE646:
 2489              	.LBE650:
 600:lcdlib/daisy_ILI9341.hpp ****             if(error2 > -deltaY)
 2490              		.loc 6 600 13 is_stmt 1 view .LVU783
 601:lcdlib/daisy_ILI9341.hpp ****             {
 2491              		.loc 6 601 13 is_stmt 0 view .LVU784
 2492 019c BAEB4C0F 		cmp	r10, ip, lsl #1
 600:lcdlib/daisy_ILI9341.hpp ****             if(error2 > -deltaY)
 2493              		.loc 6 600 18 view .LVU785
 2494 01a0 4FEA4C04 		lsl	r4, ip, #1
 2495              	.LVL184:
 601:lcdlib/daisy_ILI9341.hpp ****             {
 2496              		.loc 6 601 13 is_stmt 1 view .LVU786
 2497 01a4 04DA     		bge	.L38
 603:lcdlib/daisy_ILI9341.hpp ****                 x1 += signX;
 2498              		.loc 6 603 17 view .LVU787
 603:lcdlib/daisy_ILI9341.hpp ****                 x1 += signX;
 2499              		.loc 6 603 23 is_stmt 0 view .LVU788
ARM GAS  /var/folders/cl/k1vt3d7567s5t107m3sv9whr0000gn/T//cclnrocj.s 			page 83


 2500 01a6 029D     		ldr	r5, [sp, #8]
 2501 01a8 ACEB050C 		sub	ip, ip, r5
 2502              	.LVL185:
 604:lcdlib/daisy_ILI9341.hpp ****             }
 2503              		.loc 6 604 17 is_stmt 1 view .LVU789
 604:lcdlib/daisy_ILI9341.hpp ****             }
 2504              		.loc 6 604 20 is_stmt 0 view .LVU790
 2505 01ac 039D     		ldr	r5, [sp, #12]
 2506 01ae 2944     		add	r1, r1, r5
 2507              	.LVL186:
 2508              	.L38:
 607:lcdlib/daisy_ILI9341.hpp ****             {
 2509              		.loc 6 607 13 is_stmt 1 view .LVU791
 2510 01b0 A642     		cmp	r6, r4
 2511 01b2 02DD     		ble	.L39
 609:lcdlib/daisy_ILI9341.hpp ****                 y1 += signY;
 2512              		.loc 6 609 17 view .LVU792
 610:lcdlib/daisy_ILI9341.hpp ****             }
 2513              		.loc 6 610 20 is_stmt 0 view .LVU793
 2514 01b4 049C     		ldr	r4, [sp, #16]
 2515              	.LVL187:
 609:lcdlib/daisy_ILI9341.hpp ****                 y1 += signY;
 2516              		.loc 6 609 23 view .LVU794
 2517 01b6 B444     		add	ip, ip, r6
 2518              	.LVL188:
 610:lcdlib/daisy_ILI9341.hpp ****             }
 2519              		.loc 6 610 17 is_stmt 1 view .LVU795
 610:lcdlib/daisy_ILI9341.hpp ****             }
 2520              		.loc 6 610 20 is_stmt 0 view .LVU796
 2521 01b8 2244     		add	r2, r2, r4
 2522              	.LVL189:
 2523              	.L39:
 610:lcdlib/daisy_ILI9341.hpp ****             }
 2524              		.loc 6 610 20 view .LVU797
 2525              	.LBE652:
 597:lcdlib/daisy_ILI9341.hpp ****         {
 2526              		.loc 6 597 9 is_stmt 1 view .LVU798
 597:lcdlib/daisy_ILI9341.hpp ****         {
 2527              		.loc 6 597 26 view .LVU799
 2528 01ba 009B     		ldr	r3, [sp]
 2529 01bc 9942     		cmp	r1, r3
 2530 01be A9D1     		bne	.L42
 597:lcdlib/daisy_ILI9341.hpp ****         {
 2531              		.loc 6 597 26 is_stmt 0 view .LVU800
 2532 01c0 129C     		ldr	r4, [sp, #72]
 2533 01c2 9442     		cmp	r4, r2
 2534 01c4 A6D1     		bne	.L42
 2535              	.LVL190:
 2536              	.L20:
 613:lcdlib/daisy_ILI9341.hpp **** 
 2537              		.loc 6 613 5 view .LVU801
 2538 01c6 09B0     		add	sp, sp, #36
 2539              		.cfi_remember_state
 2540              		.cfi_def_cfa_offset 36
 2541              		@ sp needed
 2542 01c8 BDE8F08F 		pop	{r4, r5, r6, r7, r8, r9, r10, fp, pc}
 2543              	.LVL191:
ARM GAS  /var/folders/cl/k1vt3d7567s5t107m3sv9whr0000gn/T//cclnrocj.s 			page 84


 2544              	.L66:
 2545              		.cfi_restore_state
 582:lcdlib/daisy_ILI9341.hpp ****         }
 2546              		.loc 6 582 13 is_stmt 1 view .LVU802
 582:lcdlib/daisy_ILI9341.hpp ****         }
 2547              		.loc 6 582 46 is_stmt 0 view .LVU803
 2548 01cc 129B     		ldr	r3, [sp, #72]
 2549              	.LVL192:
 582:lcdlib/daisy_ILI9341.hpp ****         }
 2550              		.loc 6 582 29 view .LVU804
 2551 01ce 09B2     		sxth	r1, r1
 2552              	.LVL193:
 582:lcdlib/daisy_ILI9341.hpp ****         }
 2553              		.loc 6 582 46 view .LVU805
 2554 01d0 5E1C     		adds	r6, r3, #1
 2555 01d2 B61A     		subs	r6, r6, r2
 582:lcdlib/daisy_ILI9341.hpp ****         }
 2556              		.loc 6 582 29 view .LVU806
 2557 01d4 12B2     		sxth	r2, r2
 2558              	.LVL194:
 2559              	.LBB653:
 2560              	.LBI653:
1032:lcdlib/daisy_ILI9341.hpp **** 
1033:lcdlib/daisy_ILI9341.hpp ****         // Lets divide the whole screen in 10 sectors, 32 pixel high each
1034:lcdlib/daisy_ILI9341.hpp ****         // uint8_t screen_sector     = y / 32;
1035:lcdlib/daisy_ILI9341.hpp ****         // dirty_buff[screen_sector] = 1;
1036:lcdlib/daisy_ILI9341.hpp ****     }
1037:lcdlib/daisy_ILI9341.hpp **** 
1038:lcdlib/daisy_ILI9341.hpp ****     void DrawVLine(int16_t x,
 2561              		.loc 6 1038 10 is_stmt 1 view .LVU807
 2562              	.LBE653:
1039:lcdlib/daisy_ILI9341.hpp ****                    int16_t y,
1040:lcdlib/daisy_ILI9341.hpp ****                    int16_t h,
1041:lcdlib/daisy_ILI9341.hpp ****                    uint8_t color,
1042:lcdlib/daisy_ILI9341.hpp ****                    uint8_t alpha = 255)
1043:lcdlib/daisy_ILI9341.hpp ****     {
1044:lcdlib/daisy_ILI9341.hpp ****         for(int16_t i = y; i < y + h; i++)
 2563              		.loc 6 1044 9 view .LVU808
 2564              	.LBB688:
 2565              	.LBB654:
 2566              		.loc 6 1044 30 view .LVU809
 2567              		.loc 6 1044 34 is_stmt 0 view .LVU810
 2568 01d6 02FA86F6 		sxtah	r6, r2, r6
 2569              		.loc 6 1044 30 view .LVU811
 2570 01da 9642     		cmp	r6, r2
 2571 01dc F3DD     		ble	.L20
 2572              	.LBB655:
 2573              	.LBB656:
 2574              	.LBB657:
 2575              	.LBB658:
 2576              	.LBB659:
 2577              	.LBB660:
 2578              	.LBB661:
 2579              	.LBB662:
 249:lcdlib/daisy_ILI9341.hpp ****         // "beta" for background multiplication; (6bit+1);
 2580              		.loc 6 249 24 view .LVU812
 2581 01de 04F1020E 		add	lr, r4, #2
ARM GAS  /var/folders/cl/k1vt3d7567s5t107m3sv9whr0000gn/T//cclnrocj.s 			page 85


 249:lcdlib/daisy_ILI9341.hpp ****         // "beta" for background multiplication; (6bit+1);
 2582              		.loc 6 249 29 view .LVU813
 2583 01e2 4FEAAE0E 		asr	lr, lr, #2
 252:lcdlib/daisy_ILI9341.hpp ****         // so (0..64)*alpha + (0..64)*beta always in 0..64
 2584              		.loc 6 252 17 view .LVU814
 2585 01e6 CEF14008 		rsb	r8, lr, #64
 2586 01ea 5FFA88F8 		uxtb	r8, r8
 2587              	.LVL195:
 2588              	.L25:
 252:lcdlib/daisy_ILI9341.hpp ****         // so (0..64)*alpha + (0..64)*beta always in 0..64
 2589              		.loc 6 252 17 view .LVU815
 2590              	.LBE662:
 2591              	.LBE661:
 2592              	.LBE660:
 2593              	.LBE659:
 2594              	.LBE658:
 2595              	.LBE657:
 2596              	.LBE656:
 2597              	.LBE655:
1045:lcdlib/daisy_ILI9341.hpp ****         {
1046:lcdlib/daisy_ILI9341.hpp ****             DrawPixel(x, i, color, alpha);
 2598              		.loc 6 1046 13 is_stmt 1 view .LVU816
 2599              	.LBB687:
 2600              	.LBI655:
1020:lcdlib/daisy_ILI9341.hpp ****                    uint_fast16_t y,
 2601              		.loc 6 1020 10 view .LVU817
 2602              	.LBB686:
1025:lcdlib/daisy_ILI9341.hpp ****             return;
 2603              		.loc 6 1025 9 view .LVU818
1025:lcdlib/daisy_ILI9341.hpp ****             return;
 2604              		.loc 6 1025 17 is_stmt 0 view .LVU819
 2605 01ee B0F85430 		ldrh	r3, [r0, #84]
1025:lcdlib/daisy_ILI9341.hpp ****             return;
 2606              		.loc 6 1025 9 view .LVU820
 2607 01f2 8B42     		cmp	r3, r1
 2608 01f4 37D9     		bls	.L23
1028:lcdlib/daisy_ILI9341.hpp **** 
 2609              		.loc 6 1028 9 is_stmt 1 view .LVU821
1025:lcdlib/daisy_ILI9341.hpp ****             return;
 2610              		.loc 6 1025 31 is_stmt 0 view .LVU822
 2611 01f6 B0F85640 		ldrh	r4, [r0, #86]
1028:lcdlib/daisy_ILI9341.hpp **** 
 2612              		.loc 6 1028 26 view .LVU823
 2613 01fa 03FB0213 		mla	r3, r3, r2, r1
1025:lcdlib/daisy_ILI9341.hpp ****             return;
 2614              		.loc 6 1025 23 view .LVU824
 2615 01fe A242     		cmp	r2, r4
 2616 0200 31D2     		bcs	.L23
 2617              	.LBB683:
 2618              	.LBB680:
 2619              	.LBB675:
 2620              	.LBB671:
 206:lcdlib/daisy_ILI9341.hpp ****             color         = Blend565(color, bg_color, alpha);
 2621              		.loc 6 206 13 is_stmt 1 view .LVU825
 2622              	.LBE671:
 2623              	.LBE675:
 2624              	.LBE680:
ARM GAS  /var/folders/cl/k1vt3d7567s5t107m3sv9whr0000gn/T//cclnrocj.s 			page 86


 2625              	.LBE683:
1028:lcdlib/daisy_ILI9341.hpp **** 
 2626              		.loc 6 1028 14 is_stmt 0 view .LVU826
 2627 0202 5D00     		lsls	r5, r3, #1
 2628              	.LBB684:
 2629              	.LBB681:
 2630              	.LBB676:
 2631              	.LBB672:
 206:lcdlib/daisy_ILI9341.hpp ****             color         = Blend565(color, bg_color, alpha);
 2632              		.loc 6 206 52 view .LVU827
 2633 0204 DFF828C1 		ldr	ip, .L69+8
 2634              	.LBE672:
 2635              	.LBE676:
 202:lcdlib/daisy_ILI9341.hpp **** 
 2636              		.loc 6 202 14 view .LVU828
 2637 0208 00EB4B04 		add	r4, r0, fp, lsl #1
 2638              	.LBB677:
 2639              	.LBB673:
 2640              	.LBB667:
 2641              	.LBB663:
 257:lcdlib/daisy_ILI9341.hpp ****                            | ((alpha * (fg & MASK_G) + beta * (bg & MASK_G))
 2642              		.loc 6 257 29 view .LVU829
 2643 020c DFF81891 		ldr	r9, .L69
 2644              	.LBE663:
 2645              	.LBE667:
 2646              	.LBE673:
 2647              	.LBE677:
 2648              	.LBE681:
 2649              	.LBE684:
1028:lcdlib/daisy_ILI9341.hpp **** 
 2650              		.loc 6 1028 14 view .LVU830
 2651 0210 0095     		str	r5, [sp]
 2652              	.LVL196:
1031:lcdlib/daisy_ILI9341.hpp **** 
 2653              		.loc 6 1031 9 is_stmt 1 view .LVU831
 2654              	.LBB685:
 2655              	.LBI657:
 200:lcdlib/daisy_ILI9341.hpp ****     {
 2656              		.loc 6 200 10 view .LVU832
 2657              	.LBB682:
 202:lcdlib/daisy_ILI9341.hpp **** 
 2658              		.loc 6 202 9 view .LVU833
 2659              	.LBB678:
 204:lcdlib/daisy_ILI9341.hpp ****         {
 2660              		.loc 6 204 9 is_stmt 0 view .LVU834
 2661 0212 019D     		ldr	r5, [sp, #4]
 2662              	.LVL197:
 204:lcdlib/daisy_ILI9341.hpp ****         {
 2663              		.loc 6 204 9 view .LVU835
 2664              	.LBE678:
 202:lcdlib/daisy_ILI9341.hpp **** 
 2665              		.loc 6 202 14 view .LVU836
 2666 0214 A48B     		ldrh	r4, [r4, #28]
 2667              	.LVL198:
 204:lcdlib/daisy_ILI9341.hpp ****         {
 2668              		.loc 6 204 9 is_stmt 1 view .LVU837
 2669              	.LBB679:
ARM GAS  /var/folders/cl/k1vt3d7567s5t107m3sv9whr0000gn/T//cclnrocj.s 			page 87


 2670 0216 FF2D     		cmp	r5, #255
 2671 0218 1BD0     		beq	.L24
 2672              	.LBB674:
 206:lcdlib/daisy_ILI9341.hpp ****             color         = Blend565(color, bg_color, alpha);
 2673              		.loc 6 206 52 is_stmt 0 view .LVU838
 2674 021a 1CF81350 		ldrb	r5, [ip, r3, lsl #1]	@ zero_extendqisi2
 2675              	.LBB668:
 2676              	.LBB664:
 255:lcdlib/daisy_ILI9341.hpp ****                              + beta * (uint32_t)(bg & MASK_RB))
 2677              		.loc 6 255 38 view .LVU839
 2678 021e 24F4FC6A 		bic	r10, r4, #2016
 258:lcdlib/daisy_ILI9341.hpp ****                               & MASK_MUL_G))
 2679              		.loc 6 258 44 view .LVU840
 2680 0222 04F4FC64 		and	r4, r4, #2016
 2681              	.LVL199:
 258:lcdlib/daisy_ILI9341.hpp ****                               & MASK_MUL_G))
 2682              		.loc 6 258 44 view .LVU841
 2683              	.LBE664:
 2684              	.LBE668:
 206:lcdlib/daisy_ILI9341.hpp ****             color         = Blend565(color, bg_color, alpha);
 2685              		.loc 6 206 18 view .LVU842
 2686 0226 00EB4505 		add	r5, r0, r5, lsl #1
 2687              	.LBB669:
 2688              	.LBB665:
 258:lcdlib/daisy_ILI9341.hpp ****                               & MASK_MUL_G))
 2689              		.loc 6 258 44 view .LVU843
 2690 022a 2746     		mov	r7, r4
 2691              	.LBE665:
 2692              	.LBE669:
 206:lcdlib/daisy_ILI9341.hpp ****             color         = Blend565(color, bg_color, alpha);
 2693              		.loc 6 206 18 view .LVU844
 2694 022c AD8B     		ldrh	r5, [r5, #28]
 2695              	.LVL200:
 207:lcdlib/daisy_ILI9341.hpp ****         }
 2696              		.loc 6 207 13 is_stmt 1 view .LVU845
 2697              	.LBB670:
 2698              	.LBI661:
 244:lcdlib/daisy_ILI9341.hpp ****     {
 2699              		.loc 6 244 14 view .LVU846
 2700              	.LBB666:
 249:lcdlib/daisy_ILI9341.hpp ****         // "beta" for background multiplication; (6bit+1);
 2701              		.loc 6 249 9 view .LVU847
 252:lcdlib/daisy_ILI9341.hpp ****         // so (0..64)*alpha + (0..64)*beta always in 0..64
 2702              		.loc 6 252 9 view .LVU848
 255:lcdlib/daisy_ILI9341.hpp ****                              + beta * (uint32_t)(bg & MASK_RB))
 2703              		.loc 6 255 9 view .LVU849
 256:lcdlib/daisy_ILI9341.hpp ****                             & MASK_MUL_RB)
 2704              		.loc 6 256 39 is_stmt 0 view .LVU850
 2705 022e 25F4FC64 		bic	r4, r5, #2016
 258:lcdlib/daisy_ILI9341.hpp ****                               & MASK_MUL_G))
 2706              		.loc 6 258 67 view .LVU851
 2707 0232 05F4FC65 		and	r5, r5, #2016
 2708              	.LVL201:
 256:lcdlib/daisy_ILI9341.hpp ****                             & MASK_MUL_RB)
 2709              		.loc 6 256 37 view .LVU852
 2710 0236 08FB04F4 		mul	r4, r8, r4
 258:lcdlib/daisy_ILI9341.hpp ****                               & MASK_MUL_G))
ARM GAS  /var/folders/cl/k1vt3d7567s5t107m3sv9whr0000gn/T//cclnrocj.s 			page 88


 2711              		.loc 6 258 61 view .LVU853
 2712 023a 08FB05F5 		mul	r5, r8, r5
 256:lcdlib/daisy_ILI9341.hpp ****                             & MASK_MUL_RB)
 2713              		.loc 6 256 30 view .LVU854
 2714 023e 0EFB0A44 		mla	r4, lr, r10, r4
 258:lcdlib/daisy_ILI9341.hpp ****                               & MASK_MUL_G))
 2715              		.loc 6 258 54 view .LVU855
 2716 0242 0EFB0755 		mla	r5, lr, r7, r5
 257:lcdlib/daisy_ILI9341.hpp ****                            | ((alpha * (fg & MASK_G) + beta * (bg & MASK_G))
 2717              		.loc 6 257 29 view .LVU856
 2718 0246 04EA0904 		and	r4, r4, r9
 259:lcdlib/daisy_ILI9341.hpp ****                           >> 6);
 2719              		.loc 6 259 31 view .LVU857
 2720 024a 05F4FC35 		and	r5, r5, #129024
 258:lcdlib/daisy_ILI9341.hpp ****                               & MASK_MUL_G))
 2721              		.loc 6 258 28 view .LVU858
 2722 024e 2C43     		orrs	r4, r4, r5
 260:lcdlib/daisy_ILI9341.hpp ****     }
 2723              		.loc 6 260 31 view .LVU859
 2724 0250 A409     		lsrs	r4, r4, #6
 2725              	.LVL202:
 2726              	.L24:
 260:lcdlib/daisy_ILI9341.hpp ****     }
 2727              		.loc 6 260 31 view .LVU860
 2728              	.LBE666:
 2729              	.LBE670:
 2730              	.LBE674:
 2731              	.LBE679:
 210:lcdlib/daisy_ILI9341.hpp **** 
 2732              		.loc 6 210 9 is_stmt 1 view .LVU861
 212:lcdlib/daisy_ILI9341.hpp ****         frame_buffer[id + 1] = color & 0xFF;
 2733              		.loc 6 212 30 is_stmt 0 view .LVU862
 2734 0252 364D     		ldr	r5, .L69+4
 213:lcdlib/daisy_ILI9341.hpp ****     }
 2735              		.loc 6 213 30 view .LVU863
 2736 0254 5F00     		lsls	r7, r3, #1
 210:lcdlib/daisy_ILI9341.hpp **** 
 2737              		.loc 6 210 23 view .LVU864
 2738 0256 0CF813B0 		strb	fp, [ip, r3, lsl #1]
 212:lcdlib/daisy_ILI9341.hpp ****         frame_buffer[id + 1] = color & 0xFF;
 2739              		.loc 6 212 9 is_stmt 1 view .LVU865
 212:lcdlib/daisy_ILI9341.hpp ****         frame_buffer[id + 1] = color & 0xFF;
 2740              		.loc 6 212 38 is_stmt 0 view .LVU866
 2741 025a 4FEA142C 		lsr	ip, r4, #8
 213:lcdlib/daisy_ILI9341.hpp ****     }
 2742              		.loc 6 213 30 view .LVU867
 2743 025e 2F44     		add	r7, r7, r5
 212:lcdlib/daisy_ILI9341.hpp ****         frame_buffer[id + 1] = color & 0xFF;
 2744              		.loc 6 212 30 view .LVU868
 2745 0260 05F813C0 		strb	ip, [r5, r3, lsl #1]
 213:lcdlib/daisy_ILI9341.hpp ****     }
 2746              		.loc 6 213 9 is_stmt 1 view .LVU869
 213:lcdlib/daisy_ILI9341.hpp ****     }
 2747              		.loc 6 213 30 is_stmt 0 view .LVU870
 2748 0264 7C70     		strb	r4, [r7, #1]
 2749              	.LVL203:
 2750              	.L23:
ARM GAS  /var/folders/cl/k1vt3d7567s5t107m3sv9whr0000gn/T//cclnrocj.s 			page 89


 213:lcdlib/daisy_ILI9341.hpp ****     }
 2751              		.loc 6 213 30 view .LVU871
 2752              	.LBE682:
 2753              	.LBE685:
 2754              	.LBE686:
 2755              	.LBE687:
1044:lcdlib/daisy_ILI9341.hpp ****         {
 2756              		.loc 6 1044 9 is_stmt 1 view .LVU872
 2757 0266 0132     		adds	r2, r2, #1
 2758              	.LVL204:
1044:lcdlib/daisy_ILI9341.hpp ****         {
 2759              		.loc 6 1044 9 is_stmt 0 view .LVU873
 2760 0268 12B2     		sxth	r2, r2
 2761              	.LVL205:
1044:lcdlib/daisy_ILI9341.hpp ****         {
 2762              		.loc 6 1044 30 is_stmt 1 view .LVU874
 2763 026a 9642     		cmp	r6, r2
 2764 026c BFDC     		bgt	.L25
 2765              	.LBE654:
 2766              	.LBE688:
 613:lcdlib/daisy_ILI9341.hpp **** 
 2767              		.loc 6 613 5 is_stmt 0 view .LVU875
 2768 026e 09B0     		add	sp, sp, #36
 2769              		.cfi_remember_state
 2770              		.cfi_def_cfa_offset 36
 2771              		@ sp needed
 2772 0270 BDE8F08F 		pop	{r4, r5, r6, r7, r8, r9, r10, fp, pc}
 2773              	.LVL206:
 2774              	.L68:
 2775              		.cfi_restore_state
 613:lcdlib/daisy_ILI9341.hpp **** 
 2776              		.loc 6 613 5 view .LVU876
 2777 0274 40F20117 		movw	r7, #257
 2778 0278 DFF8B4A0 		ldr	r10, .L69+8
 2779 027c 2FE7     		b	.L33
 2780              	.LVL207:
 2781              	.L67:
 2782              	.LBB689:
 2783              	.LBI689:
 573:lcdlib/daisy_ILI9341.hpp ****                   uint_fast16_t y1,
 2784              		.loc 6 573 10 is_stmt 1 view .LVU877
 2785              	.LBB690:
 586:lcdlib/daisy_ILI9341.hpp ****         }
 2786              		.loc 6 586 13 view .LVU878
 586:lcdlib/daisy_ILI9341.hpp ****         }
 2787              		.loc 6 586 46 is_stmt 0 view .LVU879
 2788 027e 5E1C     		adds	r6, r3, #1
 586:lcdlib/daisy_ILI9341.hpp ****         }
 2789              		.loc 6 586 29 view .LVU880
 2790 0280 12B2     		sxth	r2, r2
 2791              	.LVL208:
 586:lcdlib/daisy_ILI9341.hpp ****         }
 2792              		.loc 6 586 46 view .LVU881
 2793 0282 761A     		subs	r6, r6, r1
 586:lcdlib/daisy_ILI9341.hpp ****         }
 2794              		.loc 6 586 29 view .LVU882
 2795 0284 09B2     		sxth	r1, r1
ARM GAS  /var/folders/cl/k1vt3d7567s5t107m3sv9whr0000gn/T//cclnrocj.s 			page 90


 2796              	.LVL209:
 2797              	.LBB691:
 2798              	.LBI691:
1047:lcdlib/daisy_ILI9341.hpp ****         }
1048:lcdlib/daisy_ILI9341.hpp ****     }
1049:lcdlib/daisy_ILI9341.hpp **** 
1050:lcdlib/daisy_ILI9341.hpp ****     void DrawHLine(int16_t x,
 2799              		.loc 6 1050 10 is_stmt 1 view .LVU883
 2800              	.LBE691:
 2801              	.LBE690:
 2802              	.LBE689:
1051:lcdlib/daisy_ILI9341.hpp ****                    int16_t y,
1052:lcdlib/daisy_ILI9341.hpp ****                    int16_t w,
1053:lcdlib/daisy_ILI9341.hpp ****                    uint8_t color,
1054:lcdlib/daisy_ILI9341.hpp ****                    uint8_t alpha = 255)
1055:lcdlib/daisy_ILI9341.hpp ****     {
1056:lcdlib/daisy_ILI9341.hpp ****         for(int16_t i = x; i < x + w; i++)
 2803              		.loc 6 1056 9 view .LVU884
 2804              	.LBB728:
 2805              	.LBB727:
 2806              	.LBB726:
 2807              	.LBB692:
 2808              		.loc 6 1056 30 view .LVU885
 2809              		.loc 6 1056 34 is_stmt 0 view .LVU886
 2810 0286 01FA86F6 		sxtah	r6, r1, r6
 2811              		.loc 6 1056 30 view .LVU887
 2812 028a B142     		cmp	r1, r6
 2813 028c 9BDA     		bge	.L20
 2814              	.LBB693:
 2815              	.LBB694:
 2816              	.LBB695:
 2817              	.LBB696:
 2818              	.LBB697:
 2819              	.LBB698:
 2820              	.LBB699:
 2821              	.LBB700:
 249:lcdlib/daisy_ILI9341.hpp ****         // "beta" for background multiplication; (6bit+1);
 2822              		.loc 6 249 24 view .LVU888
 2823 028e 019B     		ldr	r3, [sp, #4]
 2824              	.LVL210:
 249:lcdlib/daisy_ILI9341.hpp ****         // "beta" for background multiplication; (6bit+1);
 2825              		.loc 6 249 24 view .LVU889
 2826 0290 03F1020E 		add	lr, r3, #2
 249:lcdlib/daisy_ILI9341.hpp ****         // "beta" for background multiplication; (6bit+1);
 2827              		.loc 6 249 29 view .LVU890
 2828 0294 4FEAAE0E 		asr	lr, lr, #2
 252:lcdlib/daisy_ILI9341.hpp ****         // so (0..64)*alpha + (0..64)*beta always in 0..64
 2829              		.loc 6 252 17 view .LVU891
 2830 0298 CEF14008 		rsb	r8, lr, #64
 2831 029c 5FFA88F8 		uxtb	r8, r8
 2832              	.LVL211:
 2833              	.L29:
 252:lcdlib/daisy_ILI9341.hpp ****         // so (0..64)*alpha + (0..64)*beta always in 0..64
 2834              		.loc 6 252 17 view .LVU892
 2835              	.LBE700:
 2836              	.LBE699:
 2837              	.LBE698:
ARM GAS  /var/folders/cl/k1vt3d7567s5t107m3sv9whr0000gn/T//cclnrocj.s 			page 91


 2838              	.LBE697:
 2839              	.LBE696:
 2840              	.LBE695:
 2841              	.LBE694:
 2842              	.LBE693:
1057:lcdlib/daisy_ILI9341.hpp ****         {
1058:lcdlib/daisy_ILI9341.hpp ****             DrawPixel(i, y, color, alpha);
 2843              		.loc 6 1058 13 is_stmt 1 view .LVU893
 2844              	.LBB725:
 2845              	.LBI693:
1020:lcdlib/daisy_ILI9341.hpp ****                    uint_fast16_t y,
 2846              		.loc 6 1020 10 view .LVU894
 2847              	.LBB724:
1025:lcdlib/daisy_ILI9341.hpp ****             return;
 2848              		.loc 6 1025 9 view .LVU895
1025:lcdlib/daisy_ILI9341.hpp ****             return;
 2849              		.loc 6 1025 17 is_stmt 0 view .LVU896
 2850 02a0 B0F85430 		ldrh	r3, [r0, #84]
1025:lcdlib/daisy_ILI9341.hpp ****             return;
 2851              		.loc 6 1025 9 view .LVU897
 2852 02a4 9942     		cmp	r1, r3
 2853 02a6 37D2     		bcs	.L27
1028:lcdlib/daisy_ILI9341.hpp **** 
 2854              		.loc 6 1028 9 is_stmt 1 view .LVU898
1025:lcdlib/daisy_ILI9341.hpp ****             return;
 2855              		.loc 6 1025 31 is_stmt 0 view .LVU899
 2856 02a8 B0F85640 		ldrh	r4, [r0, #86]
1028:lcdlib/daisy_ILI9341.hpp **** 
 2857              		.loc 6 1028 26 view .LVU900
 2858 02ac 02FB0313 		mla	r3, r2, r3, r1
1025:lcdlib/daisy_ILI9341.hpp ****             return;
 2859              		.loc 6 1025 23 view .LVU901
 2860 02b0 9442     		cmp	r4, r2
 2861 02b2 31D9     		bls	.L27
 2862              	.LBB721:
 2863              	.LBB718:
 2864              	.LBB713:
 2865              	.LBB709:
 206:lcdlib/daisy_ILI9341.hpp ****             color         = Blend565(color, bg_color, alpha);
 2866              		.loc 6 206 13 is_stmt 1 view .LVU902
 2867              	.LBE709:
 2868              	.LBE713:
 2869              	.LBE718:
 2870              	.LBE721:
1028:lcdlib/daisy_ILI9341.hpp **** 
 2871              		.loc 6 1028 14 is_stmt 0 view .LVU903
 2872 02b4 5D00     		lsls	r5, r3, #1
 2873              	.LBB722:
 2874              	.LBB719:
 2875              	.LBB714:
 2876              	.LBB710:
 206:lcdlib/daisy_ILI9341.hpp ****             color         = Blend565(color, bg_color, alpha);
 2877              		.loc 6 206 52 view .LVU904
 2878 02b6 DFF878C0 		ldr	ip, .L69+8
 2879              	.LBE710:
 2880              	.LBE714:
 202:lcdlib/daisy_ILI9341.hpp **** 
ARM GAS  /var/folders/cl/k1vt3d7567s5t107m3sv9whr0000gn/T//cclnrocj.s 			page 92


 2881              		.loc 6 202 14 view .LVU905
 2882 02ba 00EB4B04 		add	r4, r0, fp, lsl #1
 2883              	.LBB715:
 2884              	.LBB711:
 2885              	.LBB705:
 2886              	.LBB701:
 257:lcdlib/daisy_ILI9341.hpp ****                            | ((alpha * (fg & MASK_G) + beta * (bg & MASK_G))
 2887              		.loc 6 257 29 view .LVU906
 2888 02be DFF86890 		ldr	r9, .L69
 2889              	.LBE701:
 2890              	.LBE705:
 2891              	.LBE711:
 2892              	.LBE715:
 2893              	.LBE719:
 2894              	.LBE722:
1028:lcdlib/daisy_ILI9341.hpp **** 
 2895              		.loc 6 1028 14 view .LVU907
 2896 02c2 0095     		str	r5, [sp]
 2897              	.LVL212:
1031:lcdlib/daisy_ILI9341.hpp **** 
 2898              		.loc 6 1031 9 is_stmt 1 view .LVU908
 2899              	.LBB723:
 2900              	.LBI695:
 200:lcdlib/daisy_ILI9341.hpp ****     {
 2901              		.loc 6 200 10 view .LVU909
 2902              	.LBB720:
 202:lcdlib/daisy_ILI9341.hpp **** 
 2903              		.loc 6 202 9 view .LVU910
 2904              	.LBB716:
 204:lcdlib/daisy_ILI9341.hpp ****         {
 2905              		.loc 6 204 9 is_stmt 0 view .LVU911
 2906 02c4 019D     		ldr	r5, [sp, #4]
 2907              	.LVL213:
 204:lcdlib/daisy_ILI9341.hpp ****         {
 2908              		.loc 6 204 9 view .LVU912
 2909              	.LBE716:
 202:lcdlib/daisy_ILI9341.hpp **** 
 2910              		.loc 6 202 14 view .LVU913
 2911 02c6 A48B     		ldrh	r4, [r4, #28]
 2912              	.LVL214:
 204:lcdlib/daisy_ILI9341.hpp ****         {
 2913              		.loc 6 204 9 is_stmt 1 view .LVU914
 2914              	.LBB717:
 2915 02c8 FF2D     		cmp	r5, #255
 2916 02ca 1BD0     		beq	.L28
 2917              	.LBB712:
 206:lcdlib/daisy_ILI9341.hpp ****             color         = Blend565(color, bg_color, alpha);
 2918              		.loc 6 206 52 is_stmt 0 view .LVU915
 2919 02cc 1CF81350 		ldrb	r5, [ip, r3, lsl #1]	@ zero_extendqisi2
 2920              	.LBB706:
 2921              	.LBB702:
 255:lcdlib/daisy_ILI9341.hpp ****                              + beta * (uint32_t)(bg & MASK_RB))
 2922              		.loc 6 255 38 view .LVU916
 2923 02d0 24F4FC6A 		bic	r10, r4, #2016
 258:lcdlib/daisy_ILI9341.hpp ****                               & MASK_MUL_G))
 2924              		.loc 6 258 44 view .LVU917
 2925 02d4 04F4FC64 		and	r4, r4, #2016
ARM GAS  /var/folders/cl/k1vt3d7567s5t107m3sv9whr0000gn/T//cclnrocj.s 			page 93


 2926              	.LVL215:
 258:lcdlib/daisy_ILI9341.hpp ****                               & MASK_MUL_G))
 2927              		.loc 6 258 44 view .LVU918
 2928              	.LBE702:
 2929              	.LBE706:
 206:lcdlib/daisy_ILI9341.hpp ****             color         = Blend565(color, bg_color, alpha);
 2930              		.loc 6 206 18 view .LVU919
 2931 02d8 00EB4505 		add	r5, r0, r5, lsl #1
 2932              	.LBB707:
 2933              	.LBB703:
 258:lcdlib/daisy_ILI9341.hpp ****                               & MASK_MUL_G))
 2934              		.loc 6 258 44 view .LVU920
 2935 02dc 2746     		mov	r7, r4
 2936              	.LBE703:
 2937              	.LBE707:
 206:lcdlib/daisy_ILI9341.hpp ****             color         = Blend565(color, bg_color, alpha);
 2938              		.loc 6 206 18 view .LVU921
 2939 02de AD8B     		ldrh	r5, [r5, #28]
 2940              	.LVL216:
 207:lcdlib/daisy_ILI9341.hpp ****         }
 2941              		.loc 6 207 13 is_stmt 1 view .LVU922
 2942              	.LBB708:
 2943              	.LBI699:
 244:lcdlib/daisy_ILI9341.hpp ****     {
 2944              		.loc 6 244 14 view .LVU923
 2945              	.LBB704:
 249:lcdlib/daisy_ILI9341.hpp ****         // "beta" for background multiplication; (6bit+1);
 2946              		.loc 6 249 9 view .LVU924
 252:lcdlib/daisy_ILI9341.hpp ****         // so (0..64)*alpha + (0..64)*beta always in 0..64
 2947              		.loc 6 252 9 view .LVU925
 255:lcdlib/daisy_ILI9341.hpp ****                              + beta * (uint32_t)(bg & MASK_RB))
 2948              		.loc 6 255 9 view .LVU926
 256:lcdlib/daisy_ILI9341.hpp ****                             & MASK_MUL_RB)
 2949              		.loc 6 256 39 is_stmt 0 view .LVU927
 2950 02e0 25F4FC64 		bic	r4, r5, #2016
 258:lcdlib/daisy_ILI9341.hpp ****                               & MASK_MUL_G))
 2951              		.loc 6 258 67 view .LVU928
 2952 02e4 05F4FC65 		and	r5, r5, #2016
 2953              	.LVL217:
 256:lcdlib/daisy_ILI9341.hpp ****                             & MASK_MUL_RB)
 2954              		.loc 6 256 37 view .LVU929
 2955 02e8 08FB04F4 		mul	r4, r8, r4
 258:lcdlib/daisy_ILI9341.hpp ****                               & MASK_MUL_G))
 2956              		.loc 6 258 61 view .LVU930
 2957 02ec 08FB05F5 		mul	r5, r8, r5
 256:lcdlib/daisy_ILI9341.hpp ****                             & MASK_MUL_RB)
 2958              		.loc 6 256 30 view .LVU931
 2959 02f0 0EFB0A44 		mla	r4, lr, r10, r4
 258:lcdlib/daisy_ILI9341.hpp ****                               & MASK_MUL_G))
 2960              		.loc 6 258 54 view .LVU932
 2961 02f4 0EFB0755 		mla	r5, lr, r7, r5
 257:lcdlib/daisy_ILI9341.hpp ****                            | ((alpha * (fg & MASK_G) + beta * (bg & MASK_G))
 2962              		.loc 6 257 29 view .LVU933
 2963 02f8 04EA0904 		and	r4, r4, r9
 259:lcdlib/daisy_ILI9341.hpp ****                           >> 6);
 2964              		.loc 6 259 31 view .LVU934
 2965 02fc 05F4FC35 		and	r5, r5, #129024
ARM GAS  /var/folders/cl/k1vt3d7567s5t107m3sv9whr0000gn/T//cclnrocj.s 			page 94


 258:lcdlib/daisy_ILI9341.hpp ****                               & MASK_MUL_G))
 2966              		.loc 6 258 28 view .LVU935
 2967 0300 2C43     		orrs	r4, r4, r5
 260:lcdlib/daisy_ILI9341.hpp ****     }
 2968              		.loc 6 260 31 view .LVU936
 2969 0302 A409     		lsrs	r4, r4, #6
 2970              	.LVL218:
 2971              	.L28:
 260:lcdlib/daisy_ILI9341.hpp ****     }
 2972              		.loc 6 260 31 view .LVU937
 2973              	.LBE704:
 2974              	.LBE708:
 2975              	.LBE712:
 2976              	.LBE717:
 210:lcdlib/daisy_ILI9341.hpp **** 
 2977              		.loc 6 210 9 is_stmt 1 view .LVU938
 212:lcdlib/daisy_ILI9341.hpp ****         frame_buffer[id + 1] = color & 0xFF;
 2978              		.loc 6 212 30 is_stmt 0 view .LVU939
 2979 0304 094D     		ldr	r5, .L69+4
 213:lcdlib/daisy_ILI9341.hpp ****     }
 2980              		.loc 6 213 30 view .LVU940
 2981 0306 5F00     		lsls	r7, r3, #1
 210:lcdlib/daisy_ILI9341.hpp **** 
 2982              		.loc 6 210 23 view .LVU941
 2983 0308 0CF813B0 		strb	fp, [ip, r3, lsl #1]
 212:lcdlib/daisy_ILI9341.hpp ****         frame_buffer[id + 1] = color & 0xFF;
 2984              		.loc 6 212 9 is_stmt 1 view .LVU942
 212:lcdlib/daisy_ILI9341.hpp ****         frame_buffer[id + 1] = color & 0xFF;
 2985              		.loc 6 212 38 is_stmt 0 view .LVU943
 2986 030c 4FEA142C 		lsr	ip, r4, #8
 213:lcdlib/daisy_ILI9341.hpp ****     }
 2987              		.loc 6 213 30 view .LVU944
 2988 0310 2F44     		add	r7, r7, r5
 212:lcdlib/daisy_ILI9341.hpp ****         frame_buffer[id + 1] = color & 0xFF;
 2989              		.loc 6 212 30 view .LVU945
 2990 0312 05F813C0 		strb	ip, [r5, r3, lsl #1]
 213:lcdlib/daisy_ILI9341.hpp ****     }
 2991              		.loc 6 213 9 is_stmt 1 view .LVU946
 213:lcdlib/daisy_ILI9341.hpp ****     }
 2992              		.loc 6 213 30 is_stmt 0 view .LVU947
 2993 0316 7C70     		strb	r4, [r7, #1]
 2994              	.LVL219:
 2995              	.L27:
 213:lcdlib/daisy_ILI9341.hpp ****     }
 2996              		.loc 6 213 30 view .LVU948
 2997              	.LBE720:
 2998              	.LBE723:
 2999              	.LBE724:
 3000              	.LBE725:
1056:lcdlib/daisy_ILI9341.hpp ****         {
 3001              		.loc 6 1056 9 is_stmt 1 view .LVU949
 3002 0318 0131     		adds	r1, r1, #1
 3003              	.LVL220:
1056:lcdlib/daisy_ILI9341.hpp ****         {
 3004              		.loc 6 1056 9 is_stmt 0 view .LVU950
 3005 031a 09B2     		sxth	r1, r1
 3006              	.LVL221:
ARM GAS  /var/folders/cl/k1vt3d7567s5t107m3sv9whr0000gn/T//cclnrocj.s 			page 95


1056:lcdlib/daisy_ILI9341.hpp ****         {
 3007              		.loc 6 1056 30 is_stmt 1 view .LVU951
 3008 031c B142     		cmp	r1, r6
 3009 031e BFDB     		blt	.L29
 3010              	.LBE692:
 3011              	.LBE726:
 3012              	.LBE727:
 3013              	.LBE728:
 613:lcdlib/daisy_ILI9341.hpp **** 
 3014              		.loc 6 613 5 is_stmt 0 view .LVU952
 3015 0320 09B0     		add	sp, sp, #36
 3016              		.cfi_def_cfa_offset 36
 3017              		@ sp needed
 3018 0322 BDE8F08F 		pop	{r4, r5, r6, r7, r8, r9, r10, fp, pc}
 3019              	.LVL222:
 3020              	.L70:
 613:lcdlib/daisy_ILI9341.hpp **** 
 3021              		.loc 6 613 5 view .LVU953
 3022 0326 00BF     		.align	2
 3023              	.L69:
 3024 0328 C0073E00 		.word	4065216
 3025 032c 00000000 		.word	_ZN19ILI9341SpiTransport12frame_bufferE
 3026 0330 00000000 		.word	_ZN19ILI9341SpiTransport9color_memE
 3027              		.cfi_endproc
 3028              	.LFE4815:
 3030              		.section	.text._ZN8UiDriver6UpdateEv,"axG",%progbits,_ZN8UiDriver6UpdateEv,comdat
 3031              		.align	1
 3032              		.p2align 2,,3
 3033              		.weak	_ZN8UiDriver6UpdateEv
 3034              		.syntax unified
 3035              		.thumb
 3036              		.thumb_func
 3038              	_ZN8UiDriver6UpdateEv:
 3039              	.LVL223:
 3040              	.LFB4833:
 966:lcdlib/daisy_ILI9341.hpp ****     {
 3041              		.loc 6 966 36 is_stmt 1 view -0
 3042              		.cfi_startproc
 3043              		@ args = 0, pretend = 0, frame = 16
 3044              		@ frame_needed = 0, uses_anonymous_args = 0
 968:lcdlib/daisy_ILI9341.hpp ****         transport_.SendDataDMA();
 3045              		.loc 6 968 9 view .LVU955
 966:lcdlib/daisy_ILI9341.hpp ****     {
 3046              		.loc 6 966 36 is_stmt 0 view .LVU956
 3047 0000 2DE9F047 		push	{r4, r5, r6, r7, r8, r9, r10, lr}
 3048              		.cfi_def_cfa_offset 32
 3049              		.cfi_offset 4, -32
 3050              		.cfi_offset 5, -28
 3051              		.cfi_offset 6, -24
 3052              		.cfi_offset 7, -20
 3053              		.cfi_offset 8, -16
 3054              		.cfi_offset 9, -12
 3055              		.cfi_offset 10, -8
 3056              		.cfi_offset 14, -4
 3057              	.LBB749:
 3058              	.LBB750:
1018:lcdlib/daisy_ILI9341.hpp **** 
ARM GAS  /var/folders/cl/k1vt3d7567s5t107m3sv9whr0000gn/T//cclnrocj.s 			page 96


 3059              		.loc 6 1018 47 view .LVU957
 3060 0004 B0F85460 		ldrh	r6, [r0, #84]
 3061              	.LBB751:
 3062              	.LBB752:
 3063              	.LBB753:
 3064              	.LBB754:
 164:lcdlib/daisy_ILI9341.hpp ****         return spi_.BlockingTransmit(&cmd, 1);
 3065              		.loc 6 164 24 view .LVU958
 3066 0008 00F14C09 		add	r9, r0, #76
 3067              	.LBE754:
 3068              	.LBE753:
 3069              	.LBE752:
 3070              	.LBE751:
 3071              	.LBE750:
 3072              	.LBE749:
 966:lcdlib/daisy_ILI9341.hpp ****     {
 3073              		.loc 6 966 36 view .LVU959
 3074 000c 86B0     		sub	sp, sp, #24
 3075              		.cfi_def_cfa_offset 56
 3076              	.LBB805:
 3077              	.LBB803:
 3078              	.LBB797:
 3079              	.LBB791:
 3080              	.LBB762:
 3081              	.LBB755:
 165:lcdlib/daisy_ILI9341.hpp ****     };
 3082              		.loc 6 165 37 view .LVU960
 3083 000e 00F11808 		add	r8, r0, #24
 3084              	.LBE755:
 3085              	.LBE762:
 3086              	.LBE791:
 3087              	.LBE797:
1018:lcdlib/daisy_ILI9341.hpp **** 
 3088              		.loc 6 1018 47 view .LVU961
 3089 0012 013E     		subs	r6, r6, #1
 3090 0014 2A23     		movs	r3, #42
 3091              	.LBB798:
 3092              	.LBB792:
 3093              	.LBB763:
 3094              	.LBB756:
 164:lcdlib/daisy_ILI9341.hpp ****         return spi_.BlockingTransmit(&cmd, 1);
 3095              		.loc 6 164 23 view .LVU962
 3096 0016 0021     		movs	r1, #0
 3097              	.LBE756:
 3098              	.LBE763:
 3099              	.LBE792:
 3100              	.LBE798:
 3101              	.LBE803:
 3102              	.LBE805:
 966:lcdlib/daisy_ILI9341.hpp ****     {
 3103              		.loc 6 966 36 view .LVU963
 3104 0018 0446     		mov	r4, r0
 3105              	.LVL224:
 3106              	.LBB806:
 3107              	.LBI749:
1018:lcdlib/daisy_ILI9341.hpp **** 
 3108              		.loc 6 1018 10 is_stmt 1 view .LVU964
ARM GAS  /var/folders/cl/k1vt3d7567s5t107m3sv9whr0000gn/T//cclnrocj.s 			page 97


 3109              	.LBB804:
1018:lcdlib/daisy_ILI9341.hpp **** 
 3110              		.loc 6 1018 20 view .LVU965
1018:lcdlib/daisy_ILI9341.hpp **** 
 3111              		.loc 6 1018 47 is_stmt 0 view .LVU966
 3112 001a B0F85650 		ldrh	r5, [r0, #86]
 3113              	.LBB799:
 3114              	.LBB793:
 3115              	.LBB764:
 3116              	.LBB757:
 164:lcdlib/daisy_ILI9341.hpp ****         return spi_.BlockingTransmit(&cmd, 1);
 3117              		.loc 6 164 24 view .LVU967
 3118 001e 00F10C0A 		add	r10, r0, #12
 3119              	.LBE757:
 3120              	.LBE764:
 3121              	.LBE793:
 3122              	.LBE799:
1018:lcdlib/daisy_ILI9341.hpp **** 
 3123              		.loc 6 1018 47 view .LVU968
 3124 0022 B6B2     		uxth	r6, r6
 3125              	.LBB800:
 3126              	.LBB794:
 3127              	.LBB765:
 3128              	.LBB758:
 164:lcdlib/daisy_ILI9341.hpp ****         return spi_.BlockingTransmit(&cmd, 1);
 3129              		.loc 6 164 23 view .LVU969
 3130 0024 4846     		mov	r0, r9
 3131              	.LVL225:
 164:lcdlib/daisy_ILI9341.hpp ****         return spi_.BlockingTransmit(&cmd, 1);
 3132              		.loc 6 164 23 view .LVU970
 3133              	.LBE758:
 3134              	.LBE765:
 3135              	.LBB766:
 182:lcdlib/daisy_ILI9341.hpp ****             SendData(data, 4);
 3136              		.loc 6 182 63 view .LVU971
 3137 0026 0F46     		mov	r7, r1
 3138 0028 8DF81430 		strb	r3, [sp, #20]
 3139              	.LBE766:
 3140              	.LBB773:
 3141              	.LBB759:
 164:lcdlib/daisy_ILI9341.hpp ****         return spi_.BlockingTransmit(&cmd, 1);
 3142              		.loc 6 164 23 view .LVU972
 3143 002c FFF7FEFF 		bl	dsy_gpio_write
 3144              	.LVL226:
 165:lcdlib/daisy_ILI9341.hpp ****     };
 3145              		.loc 6 165 37 view .LVU973
 3146 0030 6423     		movs	r3, #100
 3147 0032 0122     		movs	r2, #1
 3148 0034 05A9     		add	r1, sp, #20
 3149 0036 4046     		mov	r0, r8
 3150              	.LBE759:
 3151              	.LBE773:
 3152              	.LBE794:
 3153              	.LBE800:
1018:lcdlib/daisy_ILI9341.hpp **** 
 3154              		.loc 6 1018 47 view .LVU974
 3155 0038 013D     		subs	r5, r5, #1
ARM GAS  /var/folders/cl/k1vt3d7567s5t107m3sv9whr0000gn/T//cclnrocj.s 			page 98


 3156              	.LBB801:
 3157              	.LBB795:
 3158              	.LBB774:
 3159              	.LBB760:
 165:lcdlib/daisy_ILI9341.hpp ****     };
 3160              		.loc 6 165 37 view .LVU975
 3161 003a FFF7FEFF 		bl	_ZN5daisy9SpiHandle16BlockingTransmitEPhjm
 3162              	.LVL227:
 3163              	.LBE760:
 3164              	.LBE774:
 3165              	.LBB775:
 182:lcdlib/daisy_ILI9341.hpp ****             SendData(data, 4);
 3166              		.loc 6 182 63 view .LVU976
 3167 003e 8DF81760 		strb	r6, [sp, #23]
 181:lcdlib/daisy_ILI9341.hpp ****                                static_cast<uint8_t>(x1 & 0xFF)};
 3168              		.loc 6 181 57 view .LVU977
 3169 0042 360A     		lsrs	r6, r6, #8
 3170              	.LBB767:
 3171              	.LBB768:
 170:lcdlib/daisy_ILI9341.hpp ****         return spi_.BlockingTransmit(buff, size);
 3172              		.loc 6 170 23 view .LVU978
 3173 0044 4846     		mov	r0, r9
 3174 0046 0121     		movs	r1, #1
 3175              	.LBE768:
 3176              	.LBE767:
 182:lcdlib/daisy_ILI9341.hpp ****             SendData(data, 4);
 3177              		.loc 6 182 63 view .LVU979
 3178 0048 8DF81470 		strb	r7, [sp, #20]
 3179 004c 8DF81570 		strb	r7, [sp, #21]
 3180              	.LBE775:
 3181              	.LBE795:
 3182              	.LBE801:
1018:lcdlib/daisy_ILI9341.hpp **** 
 3183              		.loc 6 1018 47 view .LVU980
 3184 0050 ADB2     		uxth	r5, r5
 3185              	.LVL228:
 3186              	.LBB802:
 3187              	.LBI751:
 174:lcdlib/daisy_ILI9341.hpp ****     {
 3188              		.loc 6 174 10 is_stmt 1 view .LVU981
 3189              	.LBB796:
 177:lcdlib/daisy_ILI9341.hpp ****         {
 3190              		.loc 6 177 9 view .LVU982
 3191              	.LBB776:
 3192              	.LBI753:
 162:lcdlib/daisy_ILI9341.hpp ****     {
 3193              		.loc 6 162 23 view .LVU983
 3194              	.LBB761:
 164:lcdlib/daisy_ILI9341.hpp ****         return spi_.BlockingTransmit(&cmd, 1);
 3195              		.loc 6 164 9 view .LVU984
 165:lcdlib/daisy_ILI9341.hpp ****     };
 3196              		.loc 6 165 9 view .LVU985
 165:lcdlib/daisy_ILI9341.hpp ****     };
 3197              		.loc 6 165 9 is_stmt 0 view .LVU986
 3198              	.LBE761:
 3199              	.LBE776:
 178:lcdlib/daisy_ILI9341.hpp ****             uint8_t data[4] = {static_cast<uint8_t>((x0 >> 8) & 0xFF),
ARM GAS  /var/folders/cl/k1vt3d7567s5t107m3sv9whr0000gn/T//cclnrocj.s 			page 99


 3200              		.loc 6 178 9 is_stmt 1 view .LVU987
 3201              	.LBB777:
 179:lcdlib/daisy_ILI9341.hpp ****                                static_cast<uint8_t>(x0 & 0xFF),
 3202              		.loc 6 179 13 view .LVU988
 183:lcdlib/daisy_ILI9341.hpp ****         }
 3203              		.loc 6 183 13 view .LVU989
 3204              	.LBB771:
 3205              	.LBI767:
 168:lcdlib/daisy_ILI9341.hpp ****     {
 3206              		.loc 6 168 23 view .LVU990
 3207              	.LBB769:
 170:lcdlib/daisy_ILI9341.hpp ****         return spi_.BlockingTransmit(buff, size);
 3208              		.loc 6 170 9 view .LVU991
 3209              	.LBE769:
 3210              	.LBE771:
 182:lcdlib/daisy_ILI9341.hpp ****             SendData(data, 4);
 3211              		.loc 6 182 63 is_stmt 0 view .LVU992
 3212 0052 8DF81660 		strb	r6, [sp, #22]
 3213              	.LBB772:
 3214              	.LBB770:
 170:lcdlib/daisy_ILI9341.hpp ****         return spi_.BlockingTransmit(buff, size);
 3215              		.loc 6 170 23 view .LVU993
 3216 0056 FFF7FEFF 		bl	dsy_gpio_write
 3217              	.LVL229:
 171:lcdlib/daisy_ILI9341.hpp ****     };
 3218              		.loc 6 171 9 is_stmt 1 view .LVU994
 171:lcdlib/daisy_ILI9341.hpp ****     };
 3219              		.loc 6 171 37 is_stmt 0 view .LVU995
 3220 005a 0422     		movs	r2, #4
 3221 005c 05A9     		add	r1, sp, #20
 3222              	.LVL230:
 171:lcdlib/daisy_ILI9341.hpp ****     };
 3223              		.loc 6 171 37 view .LVU996
 3224 005e 6423     		movs	r3, #100
 3225 0060 4046     		mov	r0, r8
 3226 0062 FFF7FEFF 		bl	_ZN5daisy9SpiHandle16BlockingTransmitEPhjm
 3227              	.LVL231:
 171:lcdlib/daisy_ILI9341.hpp ****     };
 3228              		.loc 6 171 37 view .LVU997
 3229              	.LBE770:
 3230              	.LBE772:
 3231              	.LBE777:
 187:lcdlib/daisy_ILI9341.hpp ****         {
 3232              		.loc 6 187 9 is_stmt 1 view .LVU998
 187:lcdlib/daisy_ILI9341.hpp ****         {
 3233              		.loc 6 187 9 is_stmt 0 view .LVU999
 3234 0066 2B23     		movs	r3, #43
 3235              	.LBB778:
 3236              	.LBB779:
 164:lcdlib/daisy_ILI9341.hpp ****         return spi_.BlockingTransmit(&cmd, 1);
 3237              		.loc 6 164 23 view .LVU1000
 3238 0068 3946     		mov	r1, r7
 3239 006a 4846     		mov	r0, r9
 3240 006c 8DF81430 		strb	r3, [sp, #20]
 3241              	.LVL232:
 164:lcdlib/daisy_ILI9341.hpp ****         return spi_.BlockingTransmit(&cmd, 1);
 3242              		.loc 6 164 23 view .LVU1001
ARM GAS  /var/folders/cl/k1vt3d7567s5t107m3sv9whr0000gn/T//cclnrocj.s 			page 100


 3243              	.LBE779:
 3244              	.LBI778:
 162:lcdlib/daisy_ILI9341.hpp ****     {
 3245              		.loc 6 162 23 is_stmt 1 view .LVU1002
 3246              	.LBB780:
 164:lcdlib/daisy_ILI9341.hpp ****         return spi_.BlockingTransmit(&cmd, 1);
 3247              		.loc 6 164 9 view .LVU1003
 164:lcdlib/daisy_ILI9341.hpp ****         return spi_.BlockingTransmit(&cmd, 1);
 3248              		.loc 6 164 23 is_stmt 0 view .LVU1004
 3249 0070 FFF7FEFF 		bl	dsy_gpio_write
 3250              	.LVL233:
 165:lcdlib/daisy_ILI9341.hpp ****     };
 3251              		.loc 6 165 9 is_stmt 1 view .LVU1005
 165:lcdlib/daisy_ILI9341.hpp ****     };
 3252              		.loc 6 165 37 is_stmt 0 view .LVU1006
 3253 0074 6423     		movs	r3, #100
 3254 0076 0122     		movs	r2, #1
 3255 0078 05A9     		add	r1, sp, #20
 3256 007a 4046     		mov	r0, r8
 3257 007c FFF7FEFF 		bl	_ZN5daisy9SpiHandle16BlockingTransmitEPhjm
 3258              	.LVL234:
 165:lcdlib/daisy_ILI9341.hpp ****     };
 3259              		.loc 6 165 37 view .LVU1007
 3260              	.LBE780:
 3261              	.LBE778:
 188:lcdlib/daisy_ILI9341.hpp ****             uint8_t data[4] = {static_cast<uint8_t>((y0 >> 8) & 0xFF),
 3262              		.loc 6 188 9 is_stmt 1 view .LVU1008
 3263              	.LBB781:
 189:lcdlib/daisy_ILI9341.hpp ****                                static_cast<uint8_t>(y0 & 0xFF),
 3264              		.loc 6 189 13 view .LVU1009
 192:lcdlib/daisy_ILI9341.hpp ****             SendData(data, 4);
 3265              		.loc 6 192 63 is_stmt 0 view .LVU1010
 3266 0080 8DF81750 		strb	r5, [sp, #23]
 193:lcdlib/daisy_ILI9341.hpp ****         }
 3267              		.loc 6 193 13 is_stmt 1 view .LVU1011
 3268              	.LVL235:
 3269              	.LBB782:
 3270              	.LBI782:
 168:lcdlib/daisy_ILI9341.hpp ****     {
 3271              		.loc 6 168 23 view .LVU1012
 3272              	.LBB783:
 170:lcdlib/daisy_ILI9341.hpp ****         return spi_.BlockingTransmit(buff, size);
 3273              		.loc 6 170 9 view .LVU1013
 3274              	.LBE783:
 3275              	.LBE782:
 191:lcdlib/daisy_ILI9341.hpp ****                                static_cast<uint8_t>(y1 & 0xFF)};
 3276              		.loc 6 191 57 is_stmt 0 view .LVU1014
 3277 0084 2D0A     		lsrs	r5, r5, #8
 3278              	.LVL236:
 3279              	.LBB786:
 3280              	.LBB784:
 170:lcdlib/daisy_ILI9341.hpp ****         return spi_.BlockingTransmit(buff, size);
 3281              		.loc 6 170 23 view .LVU1015
 3282 0086 4846     		mov	r0, r9
 3283 0088 0121     		movs	r1, #1
 3284              	.LBE784:
 3285              	.LBE786:
ARM GAS  /var/folders/cl/k1vt3d7567s5t107m3sv9whr0000gn/T//cclnrocj.s 			page 101


 192:lcdlib/daisy_ILI9341.hpp ****             SendData(data, 4);
 3286              		.loc 6 192 63 view .LVU1016
 3287 008a 8DF81470 		strb	r7, [sp, #20]
 3288 008e 8DF81570 		strb	r7, [sp, #21]
 3289 0092 8DF81650 		strb	r5, [sp, #22]
 3290              	.LBB787:
 3291              	.LBB785:
 170:lcdlib/daisy_ILI9341.hpp ****         return spi_.BlockingTransmit(buff, size);
 3292              		.loc 6 170 23 view .LVU1017
 3293 0096 FFF7FEFF 		bl	dsy_gpio_write
 3294              	.LVL237:
 171:lcdlib/daisy_ILI9341.hpp ****     };
 3295              		.loc 6 171 9 is_stmt 1 view .LVU1018
 171:lcdlib/daisy_ILI9341.hpp ****     };
 3296              		.loc 6 171 37 is_stmt 0 view .LVU1019
 3297 009a 0422     		movs	r2, #4
 3298 009c 05A9     		add	r1, sp, #20
 3299              	.LVL238:
 171:lcdlib/daisy_ILI9341.hpp ****     };
 3300              		.loc 6 171 37 view .LVU1020
 3301 009e 6423     		movs	r3, #100
 3302 00a0 4046     		mov	r0, r8
 3303 00a2 FFF7FEFF 		bl	_ZN5daisy9SpiHandle16BlockingTransmitEPhjm
 3304              	.LVL239:
 171:lcdlib/daisy_ILI9341.hpp ****     };
 3305              		.loc 6 171 37 view .LVU1021
 3306              	.LBE785:
 3307              	.LBE787:
 3308              	.LBE781:
 197:lcdlib/daisy_ILI9341.hpp ****     }
 3309              		.loc 6 197 9 is_stmt 1 view .LVU1022
 197:lcdlib/daisy_ILI9341.hpp ****     }
 3310              		.loc 6 197 9 is_stmt 0 view .LVU1023
 3311 00a6 2C23     		movs	r3, #44
 3312              	.LBB788:
 3313              	.LBB789:
 164:lcdlib/daisy_ILI9341.hpp ****         return spi_.BlockingTransmit(&cmd, 1);
 3314              		.loc 6 164 23 view .LVU1024
 3315 00a8 3946     		mov	r1, r7
 3316 00aa 4846     		mov	r0, r9
 3317 00ac 8DF81430 		strb	r3, [sp, #20]
 3318              	.LVL240:
 164:lcdlib/daisy_ILI9341.hpp ****         return spi_.BlockingTransmit(&cmd, 1);
 3319              		.loc 6 164 23 view .LVU1025
 3320              	.LBE789:
 3321              	.LBI788:
 162:lcdlib/daisy_ILI9341.hpp ****     {
 3322              		.loc 6 162 23 is_stmt 1 view .LVU1026
 3323              	.LBB790:
 164:lcdlib/daisy_ILI9341.hpp ****         return spi_.BlockingTransmit(&cmd, 1);
 3324              		.loc 6 164 9 view .LVU1027
 164:lcdlib/daisy_ILI9341.hpp ****         return spi_.BlockingTransmit(&cmd, 1);
 3325              		.loc 6 164 23 is_stmt 0 view .LVU1028
 3326 00b0 FFF7FEFF 		bl	dsy_gpio_write
 3327              	.LVL241:
 165:lcdlib/daisy_ILI9341.hpp ****     };
 3328              		.loc 6 165 9 is_stmt 1 view .LVU1029
ARM GAS  /var/folders/cl/k1vt3d7567s5t107m3sv9whr0000gn/T//cclnrocj.s 			page 102


 165:lcdlib/daisy_ILI9341.hpp ****     };
 3329              		.loc 6 165 37 is_stmt 0 view .LVU1030
 3330 00b4 05A9     		add	r1, sp, #20
 3331 00b6 6423     		movs	r3, #100
 3332 00b8 0122     		movs	r2, #1
 3333 00ba 4046     		mov	r0, r8
 3334 00bc FFF7FEFF 		bl	_ZN5daisy9SpiHandle16BlockingTransmitEPhjm
 3335              	.LVL242:
 165:lcdlib/daisy_ILI9341.hpp ****     };
 3336              		.loc 6 165 37 view .LVU1031
 3337              	.LBE790:
 3338              	.LBE788:
 3339              	.LBE796:
 3340              	.LBE802:
 3341              	.LBE804:
 3342              	.LBE806:
 969:lcdlib/daisy_ILI9341.hpp ****     }
 3343              		.loc 6 969 9 is_stmt 1 view .LVU1032
 3344              	.LBB807:
 3345              	.LBI807:
 135:lcdlib/daisy_ILI9341.hpp ****     {
 3346              		.loc 6 135 23 view .LVU1033
 3347              	.LBB808:
 137:lcdlib/daisy_ILI9341.hpp ****         dma_busy       = true;
 3348              		.loc 6 137 9 view .LVU1034
 138:lcdlib/daisy_ILI9341.hpp **** 
 3349              		.loc 6 138 24 is_stmt 0 view .LVU1035
 3350 00c0 0121     		movs	r1, #1
 137:lcdlib/daisy_ILI9341.hpp ****         dma_busy       = true;
 3351              		.loc 6 137 24 view .LVU1036
 3352 00c2 4FF41633 		mov	r3, #153600
 145:lcdlib/daisy_ILI9341.hpp ****     };
 3353              		.loc 6 145 27 view .LVU1037
 3354 00c6 A28A     		ldrh	r2, [r4, #20]
 3355              	.LBB809:
 3356              	.LBB810:
 150:lcdlib/daisy_ILI9341.hpp ****         return spi_.DmaTransmit(buff, size, nullptr, &TxCompleteCallback, this);
 3357              		.loc 6 150 23 view .LVU1038
 3358 00c8 4846     		mov	r0, r9
 3359              	.LBE810:
 3360              	.LBE809:
 138:lcdlib/daisy_ILI9341.hpp **** 
 3361              		.loc 6 138 24 view .LVU1039
 3362 00ca 2173     		strb	r1, [r4, #12]
 137:lcdlib/daisy_ILI9341.hpp ****         dma_busy       = true;
 3363              		.loc 6 137 24 view .LVU1040
 3364 00cc 2361     		str	r3, [r4, #16]
 138:lcdlib/daisy_ILI9341.hpp **** 
 3365              		.loc 6 138 9 is_stmt 1 view .LVU1041
 145:lcdlib/daisy_ILI9341.hpp ****     };
 3366              		.loc 6 145 9 view .LVU1042
 145:lcdlib/daisy_ILI9341.hpp ****     };
 3367              		.loc 6 145 27 is_stmt 0 view .LVU1043
 3368 00ce 0392     		str	r2, [sp, #12]
 3369              	.LVL243:
 3370              	.LBB812:
 3371              	.LBI809:
ARM GAS  /var/folders/cl/k1vt3d7567s5t107m3sv9whr0000gn/T//cclnrocj.s 			page 103


 148:lcdlib/daisy_ILI9341.hpp ****     {
 3372              		.loc 6 148 23 is_stmt 1 view .LVU1044
 3373              	.LBB811:
 150:lcdlib/daisy_ILI9341.hpp ****         return spi_.DmaTransmit(buff, size, nullptr, &TxCompleteCallback, this);
 3374              		.loc 6 150 9 view .LVU1045
 150:lcdlib/daisy_ILI9341.hpp ****         return spi_.DmaTransmit(buff, size, nullptr, &TxCompleteCallback, this);
 3375              		.loc 6 150 23 is_stmt 0 view .LVU1046
 3376 00d0 FFF7FEFF 		bl	dsy_gpio_write
 3377              	.LVL244:
 151:lcdlib/daisy_ILI9341.hpp ****     };
 3378              		.loc 6 151 9 is_stmt 1 view .LVU1047
 151:lcdlib/daisy_ILI9341.hpp ****     };
 3379              		.loc 6 151 32 is_stmt 0 view .LVU1048
 3380 00d4 0549     		ldr	r1, .L73
 3381 00d6 3B46     		mov	r3, r7
 3382 00d8 039A     		ldr	r2, [sp, #12]
 3383 00da 4046     		mov	r0, r8
 3384 00dc CDE9001A 		strd	r1, r10, [sp]
 3385 00e0 0349     		ldr	r1, .L73+4
 3386 00e2 FFF7FEFF 		bl	_ZN5daisy9SpiHandle11DmaTransmitEPhjPFvPvEPFvS2_NS0_6ResultEES2_
 3387              	.LVL245:
 151:lcdlib/daisy_ILI9341.hpp ****     };
 3388              		.loc 6 151 32 view .LVU1049
 3389              	.LBE811:
 3390              	.LBE812:
 3391              	.LBE808:
 3392              	.LBE807:
 970:lcdlib/daisy_ILI9341.hpp **** 
 3393              		.loc 6 970 5 view .LVU1050
 3394 00e6 06B0     		add	sp, sp, #24
 3395              		.cfi_def_cfa_offset 32
 3396              		@ sp needed
 3397 00e8 BDE8F087 		pop	{r4, r5, r6, r7, r8, r9, r10, pc}
 3398              	.LVL246:
 3399              	.L74:
 970:lcdlib/daisy_ILI9341.hpp **** 
 3400              		.loc 6 970 5 view .LVU1051
 3401              		.align	2
 3402              	.L73:
 3403 00ec 00000000 		.word	_ZN19ILI9341SpiTransport18TxCompleteCallbackEPvN5daisy9SpiHandle6ResultE
 3404 00f0 00000000 		.word	_ZN19ILI9341SpiTransport12frame_bufferE
 3405              		.cfi_endproc
 3406              	.LFE4833:
 3408              		.section	.text.startup.main,"ax",%progbits
 3409              		.align	1
 3410              		.p2align 2,,3
 3411              		.global	main
 3412              		.syntax unified
 3413              		.thumb
 3414              		.thumb_func
 3416              	main:
 3417              	.LFB4849:
 3418              		.file 8 "LoopyLCD.cpp"
   1:LoopyLCD.cpp  **** #include "daisy_seed.h"
   2:LoopyLCD.cpp  **** #include "daisysp.h"
   3:LoopyLCD.cpp  **** #include "daisy_pod.h"
   4:LoopyLCD.cpp  **** #include "lcdlib/ili9341_ui_driver.cpp"
ARM GAS  /var/folders/cl/k1vt3d7567s5t107m3sv9whr0000gn/T//cclnrocj.s 			page 104


   5:LoopyLCD.cpp  **** 
   6:LoopyLCD.cpp  **** using namespace daisy;
   7:LoopyLCD.cpp  **** using namespace daisysp;
   8:LoopyLCD.cpp  **** 
   9:LoopyLCD.cpp  **** DaisySeed hw;
  10:LoopyLCD.cpp  **** UiDriver driver;
  11:LoopyLCD.cpp  **** /*
  12:LoopyLCD.cpp  **** void AudioCallback(AudioHandle::InputBuffer in, AudioHandle::OutputBuffer out, size_t size)
  13:LoopyLCD.cpp  **** {
  14:LoopyLCD.cpp  **** 	for (size_t i = 0; i < size; i++)
  15:LoopyLCD.cpp  **** 	{
  16:LoopyLCD.cpp  **** 		out[0][i] = in[0][i];
  17:LoopyLCD.cpp  **** 		out[1][i] = in[1][i];
  18:LoopyLCD.cpp  **** 	}
  19:LoopyLCD.cpp  **** }
  20:LoopyLCD.cpp  **** */
  21:LoopyLCD.cpp  **** int main(void)
  22:LoopyLCD.cpp  **** {
 3419              		.loc 8 22 1 is_stmt 1 view -0
 3420              		.cfi_startproc
 3421              		@ Volatile: function does not return.
 3422              		@ args = 0, pretend = 0, frame = 0
 3423              		@ frame_needed = 0, uses_anonymous_args = 0
  23:LoopyLCD.cpp  **** 	hw.Init(true);
 3424              		.loc 8 23 2 view .LVU1053
 3425              		.loc 8 23 9 is_stmt 0 view .LVU1054
 3426 0000 0121     		movs	r1, #1
 3427 0002 7248     		ldr	r0, .L92
 3428              	.LBB915:
 3429              	.LBB916:
 324:lcdlib/daisy_ILI9341.hpp ****         screen_update_last_   = System::GetNow();
 3430              		.loc 6 324 31 view .LVU1055
 3431 0004 724C     		ldr	r4, .L92+4
 3432 0006 734D     		ldr	r5, .L92+8
 3433              	.LBE916:
 3434              	.LBE915:
  22:LoopyLCD.cpp  **** 	hw.Init(true);
 3435              		.loc 8 22 1 view .LVU1056
 3436 0008 2DE98048 		push	{r7, fp, lr}
 3437              		.cfi_def_cfa_offset 12
 3438              		.cfi_offset 7, -12
 3439              		.cfi_offset 11, -8
 3440              		.cfi_offset 14, -4
 3441 000c 85B0     		sub	sp, sp, #20
 3442              		.cfi_def_cfa_offset 32
 3443              		.loc 8 23 9 view .LVU1057
 3444 000e FFF7FEFF 		bl	_ZN5daisy9DaisySeed4InitEb
 3445              	.LVL247:
  24:LoopyLCD.cpp  **** 	//hw.SetAudioBlockSize(4); // number of samples handled per callback
  25:LoopyLCD.cpp  **** 	//hw.SetAudioSampleRate(SaiHandle::Config::SampleRate::SAI_48KHZ);
  26:LoopyLCD.cpp  **** 	//hw.StartAudio(AudioCallback);
  27:LoopyLCD.cpp  **** 
  28:LoopyLCD.cpp  **** 	//hw.Init(true);
  29:LoopyLCD.cpp  ****   	driver.Init();
 3446              		.loc 8 29 4 is_stmt 1 view .LVU1058
 3447              	.LBB918:
 3448              	.LBI915:
ARM GAS  /var/folders/cl/k1vt3d7567s5t107m3sv9whr0000gn/T//cclnrocj.s 			page 105


 322:lcdlib/daisy_ILI9341.hpp ****     {
 3449              		.loc 6 322 10 view .LVU1059
 3450              	.LBB917:
 324:lcdlib/daisy_ILI9341.hpp ****         screen_update_last_   = System::GetNow();
 3451              		.loc 6 324 9 view .LVU1060
 324:lcdlib/daisy_ILI9341.hpp ****         screen_update_last_   = System::GetNow();
 3452              		.loc 6 324 31 is_stmt 0 view .LVU1061
 3453 0012 1123     		movs	r3, #17
 3454 0014 6360     		str	r3, [r4, #4]
 325:lcdlib/daisy_ILI9341.hpp **** 
 3455              		.loc 6 325 9 is_stmt 1 view .LVU1062
 325:lcdlib/daisy_ILI9341.hpp **** 
 3456              		.loc 6 325 47 is_stmt 0 view .LVU1063
 3457 0016 FFF7FEFF 		bl	_ZN5daisy6System6GetNowEv
 3458              	.LVL248:
 3459 001a 0346     		mov	r3, r0
 327:lcdlib/daisy_ILI9341.hpp ****     }
 3460              		.loc 6 327 19 view .LVU1064
 3461 001c 2046     		mov	r0, r4
 325:lcdlib/daisy_ILI9341.hpp **** 
 3462              		.loc 6 325 31 view .LVU1065
 3463 001e 2360     		str	r3, [r4]
 327:lcdlib/daisy_ILI9341.hpp ****     }
 3464              		.loc 6 327 9 is_stmt 1 view .LVU1066
 327:lcdlib/daisy_ILI9341.hpp ****     }
 3465              		.loc 6 327 19 is_stmt 0 view .LVU1067
 3466 0020 FFF7FEFF 		bl	_ZN8UiDriver10InitDriverEv
 3467              	.LVL249:
 327:lcdlib/daisy_ILI9341.hpp ****     }
 3468              		.loc 6 327 19 view .LVU1068
 3469              	.LBE917:
 3470              	.LBE918:
 3471              	.LBB919:
 3472              	.LBB920:
 567:lcdlib/daisy_ILI9341.hpp ****         {
 3473              		.loc 6 567 29 is_stmt 1 view .LVU1069
 3474              	.LBB921:
 3475              	.LBB922:
 202:lcdlib/daisy_ILI9341.hpp **** 
 3476              		.loc 6 202 14 is_stmt 0 view .LVU1070
 3477 0024 A18B     		ldrh	r1, [r4, #28]
 3478              	.LBE922:
 3479              	.LBE921:
 567:lcdlib/daisy_ILI9341.hpp ****         {
 3480              		.loc 6 567 20 view .LVU1071
 3481 0026 0023     		movs	r3, #0
 3482 0028 6B4C     		ldr	r4, .L92+12
 3483              	.LBB925:
 3484              	.LBB923:
 212:lcdlib/daisy_ILI9341.hpp ****         frame_buffer[id + 1] = color & 0xFF;
 3485              		.loc 6 212 30 view .LVU1072
 3486 002a 080A     		lsrs	r0, r1, #8
 3487 002c 661C     		adds	r6, r4, #1
 213:lcdlib/daisy_ILI9341.hpp ****     }
 3488              		.loc 6 213 30 view .LVU1073
 3489 002e C9B2     		uxtb	r1, r1
 3490              	.LVL250:
ARM GAS  /var/folders/cl/k1vt3d7567s5t107m3sv9whr0000gn/T//cclnrocj.s 			page 106


 3491              	.L76:
 213:lcdlib/daisy_ILI9341.hpp ****     }
 3492              		.loc 6 213 30 view .LVU1074
 3493              	.LBE923:
 3494              	.LBE925:
 569:lcdlib/daisy_ILI9341.hpp ****         }
 3495              		.loc 6 569 13 is_stmt 1 view .LVU1075
 3496              	.LBB926:
 3497              	.LBI921:
 200:lcdlib/daisy_ILI9341.hpp ****     {
 3498              		.loc 6 200 10 view .LVU1076
 3499              	.LBB924:
 202:lcdlib/daisy_ILI9341.hpp **** 
 3500              		.loc 6 202 9 view .LVU1077
 204:lcdlib/daisy_ILI9341.hpp ****         {
 3501              		.loc 6 204 9 view .LVU1078
 210:lcdlib/daisy_ILI9341.hpp **** 
 3502              		.loc 6 210 9 view .LVU1079
 210:lcdlib/daisy_ILI9341.hpp **** 
 3503              		.loc 6 210 23 is_stmt 0 view .LVU1080
 3504 0030 0022     		movs	r2, #0
 212:lcdlib/daisy_ILI9341.hpp ****         frame_buffer[id + 1] = color & 0xFF;
 3505              		.loc 6 212 30 view .LVU1081
 3506 0032 04F81300 		strb	r0, [r4, r3, lsl #1]
 213:lcdlib/daisy_ILI9341.hpp ****     }
 3507              		.loc 6 213 30 view .LVU1082
 3508 0036 06F81310 		strb	r1, [r6, r3, lsl #1]
 210:lcdlib/daisy_ILI9341.hpp **** 
 3509              		.loc 6 210 23 view .LVU1083
 3510 003a 05F81320 		strb	r2, [r5, r3, lsl #1]
 212:lcdlib/daisy_ILI9341.hpp ****         frame_buffer[id + 1] = color & 0xFF;
 3511              		.loc 6 212 9 is_stmt 1 view .LVU1084
 213:lcdlib/daisy_ILI9341.hpp ****     }
 3512              		.loc 6 213 9 view .LVU1085
 3513              	.LVL251:
 213:lcdlib/daisy_ILI9341.hpp ****     }
 3514              		.loc 6 213 9 is_stmt 0 view .LVU1086
 3515              	.LBE924:
 3516              	.LBE926:
 567:lcdlib/daisy_ILI9341.hpp ****         {
 3517              		.loc 6 567 9 is_stmt 1 view .LVU1087
 3518 003e 0133     		adds	r3, r3, #1
 3519              	.LVL252:
 567:lcdlib/daisy_ILI9341.hpp ****         {
 3520              		.loc 6 567 29 view .LVU1088
 3521 0040 B3F5963F 		cmp	r3, #76800
 3522 0044 F4D1     		bne	.L76
 3523              	.LVL253:
 567:lcdlib/daisy_ILI9341.hpp ****         {
 3524              		.loc 6 567 29 is_stmt 0 view .LVU1089
 3525              	.LBE920:
 3526              	.LBE919:
  30:LoopyLCD.cpp  **** 
  31:LoopyLCD.cpp  ****   // Here all the drawing happening in the memory buffer, so no drawing happening at this point. 
  32:LoopyLCD.cpp  ****   driver.Fill(COLOR_BLACK);
  33:LoopyLCD.cpp  ****   driver.FillRect(Rectangle(100, 100, 50, 50), COLOR_RED);
 3527              		.loc 8 33 3 is_stmt 1 view .LVU1090
ARM GAS  /var/folders/cl/k1vt3d7567s5t107m3sv9whr0000gn/T//cclnrocj.s 			page 107


 3528              	.LBB927:
 3529              	.LBI927:
 3530              		.file 9 "../../libDaisy//src/hid/disp/graphics_common.h"
   1:../../libDaisy//src/hid/disp/graphics_common.h **** #pragma once
   2:../../libDaisy//src/hid/disp/graphics_common.h **** 
   3:../../libDaisy//src/hid/disp/graphics_common.h **** #include <cstdint>
   4:../../libDaisy//src/hid/disp/graphics_common.h **** 
   5:../../libDaisy//src/hid/disp/graphics_common.h **** namespace daisy
   6:../../libDaisy//src/hid/disp/graphics_common.h **** {
   7:../../libDaisy//src/hid/disp/graphics_common.h **** /** Justifications */
   8:../../libDaisy//src/hid/disp/graphics_common.h **** enum class Alignment
   9:../../libDaisy//src/hid/disp/graphics_common.h **** {
  10:../../libDaisy//src/hid/disp/graphics_common.h ****     centered,
  11:../../libDaisy//src/hid/disp/graphics_common.h ****     topLeft,
  12:../../libDaisy//src/hid/disp/graphics_common.h ****     topCentered,
  13:../../libDaisy//src/hid/disp/graphics_common.h ****     topRight,
  14:../../libDaisy//src/hid/disp/graphics_common.h ****     bottomLeft,
  15:../../libDaisy//src/hid/disp/graphics_common.h ****     bottomCentered,
  16:../../libDaisy//src/hid/disp/graphics_common.h ****     bottomRight,
  17:../../libDaisy//src/hid/disp/graphics_common.h ****     centeredLeft,
  18:../../libDaisy//src/hid/disp/graphics_common.h ****     centeredRight
  19:../../libDaisy//src/hid/disp/graphics_common.h **** };
  20:../../libDaisy//src/hid/disp/graphics_common.h **** 
  21:../../libDaisy//src/hid/disp/graphics_common.h **** class Rectangle
  22:../../libDaisy//src/hid/disp/graphics_common.h **** {
  23:../../libDaisy//src/hid/disp/graphics_common.h ****   public:
  24:../../libDaisy//src/hid/disp/graphics_common.h ****     Rectangle() : x_(0), y_(0), width_(0), height_(0) {}
  25:../../libDaisy//src/hid/disp/graphics_common.h **** 
  26:../../libDaisy//src/hid/disp/graphics_common.h ****     Rectangle(int16_t width, int16_t height)
  27:../../libDaisy//src/hid/disp/graphics_common.h ****     : x_(0), y_(0), width_(max(0, width)), height_(max(0, height))
  28:../../libDaisy//src/hid/disp/graphics_common.h ****     {
  29:../../libDaisy//src/hid/disp/graphics_common.h ****     }
  30:../../libDaisy//src/hid/disp/graphics_common.h **** 
  31:../../libDaisy//src/hid/disp/graphics_common.h ****     Rectangle(int16_t x, int16_t y, int16_t width, int16_t height)
 3531              		.loc 9 31 5 view .LVU1091
 3532              	.LBB928:
 3533              	.LBI928:
  32:../../libDaisy//src/hid/disp/graphics_common.h ****     : x_(x), y_(y), width_(max(0, width)), height_(max(0, height))
  33:../../libDaisy//src/hid/disp/graphics_common.h ****     {
  34:../../libDaisy//src/hid/disp/graphics_common.h ****     }
  35:../../libDaisy//src/hid/disp/graphics_common.h **** 
  36:../../libDaisy//src/hid/disp/graphics_common.h ****     Rectangle(const Rectangle& other) { *this = other; }
  37:../../libDaisy//src/hid/disp/graphics_common.h **** 
  38:../../libDaisy//src/hid/disp/graphics_common.h ****     Rectangle& operator=(const Rectangle& other)
  39:../../libDaisy//src/hid/disp/graphics_common.h ****     {
  40:../../libDaisy//src/hid/disp/graphics_common.h ****         x_      = other.x_;
  41:../../libDaisy//src/hid/disp/graphics_common.h ****         y_      = other.y_;
  42:../../libDaisy//src/hid/disp/graphics_common.h ****         width_  = other.width_;
  43:../../libDaisy//src/hid/disp/graphics_common.h ****         height_ = other.height_;
  44:../../libDaisy//src/hid/disp/graphics_common.h ****         return *this;
  45:../../libDaisy//src/hid/disp/graphics_common.h ****     }
  46:../../libDaisy//src/hid/disp/graphics_common.h **** 
  47:../../libDaisy//src/hid/disp/graphics_common.h ****     bool operator==(const Rectangle& other) const
  48:../../libDaisy//src/hid/disp/graphics_common.h ****     {
  49:../../libDaisy//src/hid/disp/graphics_common.h ****         return (x_ == other.x_) && (y_ == other.y_) && (width_ == other.width_)
  50:../../libDaisy//src/hid/disp/graphics_common.h ****                && (height_ == other.height_);
  51:../../libDaisy//src/hid/disp/graphics_common.h ****     }
ARM GAS  /var/folders/cl/k1vt3d7567s5t107m3sv9whr0000gn/T//cclnrocj.s 			page 108


  52:../../libDaisy//src/hid/disp/graphics_common.h ****     bool operator!=(const Rectangle& other) const { return !(*this == other); }
  53:../../libDaisy//src/hid/disp/graphics_common.h **** 
  54:../../libDaisy//src/hid/disp/graphics_common.h ****     bool IsEmpty() const { return (width_ <= 0) || (height_ <= 0); }
  55:../../libDaisy//src/hid/disp/graphics_common.h **** 
  56:../../libDaisy//src/hid/disp/graphics_common.h ****     int16_t GetX() const { return x_; }
  57:../../libDaisy//src/hid/disp/graphics_common.h ****     int16_t GetY() const { return y_; }
  58:../../libDaisy//src/hid/disp/graphics_common.h ****     int16_t GetWidth() const { return width_; }
  59:../../libDaisy//src/hid/disp/graphics_common.h ****     int16_t GetHeight() const { return height_; }
  60:../../libDaisy//src/hid/disp/graphics_common.h ****     int16_t GetRight() const { return x_ + width_; }
  61:../../libDaisy//src/hid/disp/graphics_common.h ****     int16_t GetBottom() const { return y_ + height_; }
  62:../../libDaisy//src/hid/disp/graphics_common.h ****     int16_t GetCenterX() const { return x_ + width_ / 2; }
  63:../../libDaisy//src/hid/disp/graphics_common.h ****     int16_t GetCenterY() const { return y_ + height_ / 2; }
  64:../../libDaisy//src/hid/disp/graphics_common.h **** 
  65:../../libDaisy//src/hid/disp/graphics_common.h ****     Rectangle WithX(int16_t x) const { return {x, y_, width_, height_}; }
  66:../../libDaisy//src/hid/disp/graphics_common.h ****     Rectangle WithY(int16_t y) const { return {x_, y, width_, height_}; }
  67:../../libDaisy//src/hid/disp/graphics_common.h ****     Rectangle WithWidth(int16_t width) const
  68:../../libDaisy//src/hid/disp/graphics_common.h ****     {
  69:../../libDaisy//src/hid/disp/graphics_common.h ****         return {x_, y_, width, height_};
  70:../../libDaisy//src/hid/disp/graphics_common.h ****     }
  71:../../libDaisy//src/hid/disp/graphics_common.h ****     Rectangle WithHeight(int16_t height) const
  72:../../libDaisy//src/hid/disp/graphics_common.h ****     {
  73:../../libDaisy//src/hid/disp/graphics_common.h ****         return {x_, y_, width_, height};
  74:../../libDaisy//src/hid/disp/graphics_common.h ****     }
  75:../../libDaisy//src/hid/disp/graphics_common.h ****     Rectangle WithSize(int16_t width, int16_t height) const
  76:../../libDaisy//src/hid/disp/graphics_common.h ****     {
  77:../../libDaisy//src/hid/disp/graphics_common.h ****         return {x_, y_, width, height};
  78:../../libDaisy//src/hid/disp/graphics_common.h ****     }
  79:../../libDaisy//src/hid/disp/graphics_common.h ****     Rectangle WithWidthKeepingCenter(int16_t width) const
  80:../../libDaisy//src/hid/disp/graphics_common.h ****     {
  81:../../libDaisy//src/hid/disp/graphics_common.h ****         return Rectangle(x_, y_, width, height_)
  82:../../libDaisy//src/hid/disp/graphics_common.h ****             .WithCenter(GetCenterX(), GetCenterY());
  83:../../libDaisy//src/hid/disp/graphics_common.h ****     }
  84:../../libDaisy//src/hid/disp/graphics_common.h ****     Rectangle WithHeightKeepingCenter(int16_t height) const
  85:../../libDaisy//src/hid/disp/graphics_common.h ****     {
  86:../../libDaisy//src/hid/disp/graphics_common.h ****         return Rectangle(x_, y_, width_, height)
  87:../../libDaisy//src/hid/disp/graphics_common.h ****             .WithCenter(GetCenterX(), GetCenterY());
  88:../../libDaisy//src/hid/disp/graphics_common.h ****     }
  89:../../libDaisy//src/hid/disp/graphics_common.h ****     Rectangle WithSizeKeepingCenter(int16_t width, int16_t height) const
  90:../../libDaisy//src/hid/disp/graphics_common.h ****     {
  91:../../libDaisy//src/hid/disp/graphics_common.h ****         return Rectangle(x_, y_, width, height)
  92:../../libDaisy//src/hid/disp/graphics_common.h ****             .WithCenter(GetCenterX(), GetCenterY());
  93:../../libDaisy//src/hid/disp/graphics_common.h ****     }
  94:../../libDaisy//src/hid/disp/graphics_common.h **** 
  95:../../libDaisy//src/hid/disp/graphics_common.h ****     Rectangle Reduced(int16_t sizeToReduce) const
  96:../../libDaisy//src/hid/disp/graphics_common.h ****     {
  97:../../libDaisy//src/hid/disp/graphics_common.h ****         return {int16_t(x_ + sizeToReduce),
  98:../../libDaisy//src/hid/disp/graphics_common.h ****                 int16_t(y_ + sizeToReduce),
  99:../../libDaisy//src/hid/disp/graphics_common.h ****                 int16_t(width_ - 2 * sizeToReduce),
 100:../../libDaisy//src/hid/disp/graphics_common.h ****                 int16_t(height_ - 2 * sizeToReduce)};
 101:../../libDaisy//src/hid/disp/graphics_common.h ****     }
 102:../../libDaisy//src/hid/disp/graphics_common.h ****     Rectangle Reduced(int16_t xToReduce, int16_t yToReduce) const
 103:../../libDaisy//src/hid/disp/graphics_common.h ****     {
 104:../../libDaisy//src/hid/disp/graphics_common.h ****         return {int16_t(x_ + xToReduce),
 105:../../libDaisy//src/hid/disp/graphics_common.h ****                 int16_t(y_ + yToReduce),
 106:../../libDaisy//src/hid/disp/graphics_common.h ****                 int16_t(width_ - 2 * xToReduce),
 107:../../libDaisy//src/hid/disp/graphics_common.h ****                 int16_t(height_ - 2 * yToReduce)};
 108:../../libDaisy//src/hid/disp/graphics_common.h ****     }
ARM GAS  /var/folders/cl/k1vt3d7567s5t107m3sv9whr0000gn/T//cclnrocj.s 			page 109


 109:../../libDaisy//src/hid/disp/graphics_common.h **** 
 110:../../libDaisy//src/hid/disp/graphics_common.h ****     Rectangle Translated(int16_t x, int16_t y) const
 111:../../libDaisy//src/hid/disp/graphics_common.h ****     {
 112:../../libDaisy//src/hid/disp/graphics_common.h ****         return {int16_t(x_ + x), int16_t(y_ + y), width_, height_};
 113:../../libDaisy//src/hid/disp/graphics_common.h ****     }
 114:../../libDaisy//src/hid/disp/graphics_common.h **** 
 115:../../libDaisy//src/hid/disp/graphics_common.h ****     Rectangle WithLeft(int16_t left) const
 116:../../libDaisy//src/hid/disp/graphics_common.h ****     {
 117:../../libDaisy//src/hid/disp/graphics_common.h ****         const auto newWidth = int16_t((x_ - left) + width_);
 118:../../libDaisy//src/hid/disp/graphics_common.h ****         return {left, y_, newWidth, height_};
 119:../../libDaisy//src/hid/disp/graphics_common.h ****     }
 120:../../libDaisy//src/hid/disp/graphics_common.h **** 
 121:../../libDaisy//src/hid/disp/graphics_common.h ****     Rectangle WithRight(int16_t right) const
 122:../../libDaisy//src/hid/disp/graphics_common.h ****     {
 123:../../libDaisy//src/hid/disp/graphics_common.h ****         const auto newWidth = int16_t(right - x_);
 124:../../libDaisy//src/hid/disp/graphics_common.h ****         return {x_, y_, newWidth, height_};
 125:../../libDaisy//src/hid/disp/graphics_common.h ****     }
 126:../../libDaisy//src/hid/disp/graphics_common.h **** 
 127:../../libDaisy//src/hid/disp/graphics_common.h ****     Rectangle WithTop(int16_t top) const
 128:../../libDaisy//src/hid/disp/graphics_common.h ****     {
 129:../../libDaisy//src/hid/disp/graphics_common.h ****         const auto newHeight = int16_t((y_ - top) + height_);
 130:../../libDaisy//src/hid/disp/graphics_common.h ****         return {x_, top, width_, newHeight};
 131:../../libDaisy//src/hid/disp/graphics_common.h ****     }
 132:../../libDaisy//src/hid/disp/graphics_common.h **** 
 133:../../libDaisy//src/hid/disp/graphics_common.h ****     Rectangle WithBottom(int16_t bottom) const
 134:../../libDaisy//src/hid/disp/graphics_common.h ****     {
 135:../../libDaisy//src/hid/disp/graphics_common.h ****         const auto newHeight = int16_t(bottom - y_);
 136:../../libDaisy//src/hid/disp/graphics_common.h ****         return {x_, y_, width_, newHeight};
 137:../../libDaisy//src/hid/disp/graphics_common.h ****     }
 138:../../libDaisy//src/hid/disp/graphics_common.h **** 
 139:../../libDaisy//src/hid/disp/graphics_common.h ****     Rectangle WithTrimmedLeft(int16_t pxToTrim) const
 140:../../libDaisy//src/hid/disp/graphics_common.h ****     {
 141:../../libDaisy//src/hid/disp/graphics_common.h ****         return {
 142:../../libDaisy//src/hid/disp/graphics_common.h ****             int16_t(x_ + pxToTrim), y_, int16_t(width_ - pxToTrim), height_};
 143:../../libDaisy//src/hid/disp/graphics_common.h ****     }
 144:../../libDaisy//src/hid/disp/graphics_common.h **** 
 145:../../libDaisy//src/hid/disp/graphics_common.h ****     Rectangle WithTrimmedRight(int16_t pxToTrim) const
 146:../../libDaisy//src/hid/disp/graphics_common.h ****     {
 147:../../libDaisy//src/hid/disp/graphics_common.h ****         return {x_, y_, int16_t(width_ - pxToTrim), height_};
 148:../../libDaisy//src/hid/disp/graphics_common.h ****     }
 149:../../libDaisy//src/hid/disp/graphics_common.h **** 
 150:../../libDaisy//src/hid/disp/graphics_common.h ****     Rectangle WithTrimmedTop(int16_t pxToTrim) const
 151:../../libDaisy//src/hid/disp/graphics_common.h ****     {
 152:../../libDaisy//src/hid/disp/graphics_common.h ****         return {
 153:../../libDaisy//src/hid/disp/graphics_common.h ****             x_, int16_t(y_ + pxToTrim), width_, int16_t(height_ - pxToTrim)};
 154:../../libDaisy//src/hid/disp/graphics_common.h ****     }
 155:../../libDaisy//src/hid/disp/graphics_common.h **** 
 156:../../libDaisy//src/hid/disp/graphics_common.h ****     Rectangle WithTrimmedBottom(int16_t pxToTrim) const
 157:../../libDaisy//src/hid/disp/graphics_common.h ****     {
 158:../../libDaisy//src/hid/disp/graphics_common.h ****         return {x_, y_, width_, int16_t(height_ - pxToTrim)};
 159:../../libDaisy//src/hid/disp/graphics_common.h ****     }
 160:../../libDaisy//src/hid/disp/graphics_common.h **** 
 161:../../libDaisy//src/hid/disp/graphics_common.h ****     Rectangle WithCenterX(int16_t centerX) const
 162:../../libDaisy//src/hid/disp/graphics_common.h ****     {
 163:../../libDaisy//src/hid/disp/graphics_common.h ****         return {int16_t(x_ + centerX - GetCenterX()), y_, width_, height_};
 164:../../libDaisy//src/hid/disp/graphics_common.h ****     }
 165:../../libDaisy//src/hid/disp/graphics_common.h **** 
ARM GAS  /var/folders/cl/k1vt3d7567s5t107m3sv9whr0000gn/T//cclnrocj.s 			page 110


 166:../../libDaisy//src/hid/disp/graphics_common.h ****     Rectangle WithCenterY(int16_t centerY) const
 167:../../libDaisy//src/hid/disp/graphics_common.h ****     {
 168:../../libDaisy//src/hid/disp/graphics_common.h ****         return {x_, int16_t(y_ + centerY - GetCenterY()), width_, height_};
 169:../../libDaisy//src/hid/disp/graphics_common.h ****     }
 170:../../libDaisy//src/hid/disp/graphics_common.h **** 
 171:../../libDaisy//src/hid/disp/graphics_common.h ****     Rectangle WithCenter(int16_t centerX, int16_t centerY) const
 172:../../libDaisy//src/hid/disp/graphics_common.h ****     {
 173:../../libDaisy//src/hid/disp/graphics_common.h ****         return {int16_t(x_ + centerX - GetCenterX()),
 174:../../libDaisy//src/hid/disp/graphics_common.h ****                 int16_t(y_ + centerY - GetCenterY()),
 175:../../libDaisy//src/hid/disp/graphics_common.h ****                 width_,
 176:../../libDaisy//src/hid/disp/graphics_common.h ****                 height_};
 177:../../libDaisy//src/hid/disp/graphics_common.h ****     }
 178:../../libDaisy//src/hid/disp/graphics_common.h **** 
 179:../../libDaisy//src/hid/disp/graphics_common.h ****     Rectangle RemoveFromLeft(int16_t pxToRemove)
 180:../../libDaisy//src/hid/disp/graphics_common.h ****     {
 181:../../libDaisy//src/hid/disp/graphics_common.h ****         const auto result = this->WithWidth(min(pxToRemove, width_));
 182:../../libDaisy//src/hid/disp/graphics_common.h ****         x_ += min(pxToRemove, width_);
 183:../../libDaisy//src/hid/disp/graphics_common.h ****         width_ = max(int16_t(width_ - pxToRemove), 0);
 184:../../libDaisy//src/hid/disp/graphics_common.h ****         return result;
 185:../../libDaisy//src/hid/disp/graphics_common.h ****     }
 186:../../libDaisy//src/hid/disp/graphics_common.h **** 
 187:../../libDaisy//src/hid/disp/graphics_common.h ****     Rectangle RemoveFromRight(int16_t pxToRemove)
 188:../../libDaisy//src/hid/disp/graphics_common.h ****     {
 189:../../libDaisy//src/hid/disp/graphics_common.h ****         const auto canRemove = min(pxToRemove, width_);
 190:../../libDaisy//src/hid/disp/graphics_common.h ****         width_ -= canRemove;
 191:../../libDaisy//src/hid/disp/graphics_common.h ****         return {int16_t(x_ + width_), y_, canRemove, height_};
 192:../../libDaisy//src/hid/disp/graphics_common.h ****     }
 193:../../libDaisy//src/hid/disp/graphics_common.h **** 
 194:../../libDaisy//src/hid/disp/graphics_common.h ****     Rectangle RemoveFromTop(int16_t pxToRemove)
 195:../../libDaisy//src/hid/disp/graphics_common.h ****     {
 196:../../libDaisy//src/hid/disp/graphics_common.h ****         const auto result = this->WithHeight(min(pxToRemove, height_));
 197:../../libDaisy//src/hid/disp/graphics_common.h ****         y_ += min(pxToRemove, height_);
 198:../../libDaisy//src/hid/disp/graphics_common.h ****         height_ = max(height_ - pxToRemove, 0);
 199:../../libDaisy//src/hid/disp/graphics_common.h ****         return result;
 200:../../libDaisy//src/hid/disp/graphics_common.h ****     }
 201:../../libDaisy//src/hid/disp/graphics_common.h **** 
 202:../../libDaisy//src/hid/disp/graphics_common.h ****     Rectangle RemoveFromBottom(int16_t pxToRemove)
 203:../../libDaisy//src/hid/disp/graphics_common.h ****     {
 204:../../libDaisy//src/hid/disp/graphics_common.h ****         const auto canRemove = min(pxToRemove, height_);
 205:../../libDaisy//src/hid/disp/graphics_common.h ****         height_ -= canRemove;
 206:../../libDaisy//src/hid/disp/graphics_common.h ****         return {x_, int16_t(y_ + height_), width_, canRemove};
 207:../../libDaisy//src/hid/disp/graphics_common.h ****     }
 208:../../libDaisy//src/hid/disp/graphics_common.h **** 
 209:../../libDaisy//src/hid/disp/graphics_common.h ****     Rectangle AlignedWithin(const Rectangle& other, Alignment alignment) const
 210:../../libDaisy//src/hid/disp/graphics_common.h ****     {
 211:../../libDaisy//src/hid/disp/graphics_common.h ****         switch(alignment)
 212:../../libDaisy//src/hid/disp/graphics_common.h ****         {
 213:../../libDaisy//src/hid/disp/graphics_common.h ****             case Alignment::topLeft:
 214:../../libDaisy//src/hid/disp/graphics_common.h ****                 return {other.x_, other.y_, width_, height_};
 215:../../libDaisy//src/hid/disp/graphics_common.h ****             case Alignment::topRight:
 216:../../libDaisy//src/hid/disp/graphics_common.h ****                 return {int16_t(other.GetRight() - width_),
 217:../../libDaisy//src/hid/disp/graphics_common.h ****                         other.y_,
 218:../../libDaisy//src/hid/disp/graphics_common.h ****                         width_,
 219:../../libDaisy//src/hid/disp/graphics_common.h ****                         height_};
 220:../../libDaisy//src/hid/disp/graphics_common.h ****             case Alignment::topCentered:
 221:../../libDaisy//src/hid/disp/graphics_common.h ****                 return {int16_t(x_ + (other.GetCenterX() - GetCenterX())),
 222:../../libDaisy//src/hid/disp/graphics_common.h ****                         other.y_,
ARM GAS  /var/folders/cl/k1vt3d7567s5t107m3sv9whr0000gn/T//cclnrocj.s 			page 111


 223:../../libDaisy//src/hid/disp/graphics_common.h ****                         width_,
 224:../../libDaisy//src/hid/disp/graphics_common.h ****                         height_};
 225:../../libDaisy//src/hid/disp/graphics_common.h ****             case Alignment::bottomLeft:
 226:../../libDaisy//src/hid/disp/graphics_common.h ****                 return {other.x_,
 227:../../libDaisy//src/hid/disp/graphics_common.h ****                         int16_t(other.GetBottom() - height_),
 228:../../libDaisy//src/hid/disp/graphics_common.h ****                         width_,
 229:../../libDaisy//src/hid/disp/graphics_common.h ****                         height_};
 230:../../libDaisy//src/hid/disp/graphics_common.h ****             case Alignment::bottomRight:
 231:../../libDaisy//src/hid/disp/graphics_common.h ****                 return {int16_t(other.GetRight() - width_),
 232:../../libDaisy//src/hid/disp/graphics_common.h ****                         int16_t(other.GetBottom() - height_),
 233:../../libDaisy//src/hid/disp/graphics_common.h ****                         width_,
 234:../../libDaisy//src/hid/disp/graphics_common.h ****                         height_};
 235:../../libDaisy//src/hid/disp/graphics_common.h ****             case Alignment::bottomCentered:
 236:../../libDaisy//src/hid/disp/graphics_common.h ****                 return {int16_t(x_ + (other.GetCenterX() - GetCenterX())),
 237:../../libDaisy//src/hid/disp/graphics_common.h ****                         int16_t(other.GetBottom() - height_),
 238:../../libDaisy//src/hid/disp/graphics_common.h ****                         width_,
 239:../../libDaisy//src/hid/disp/graphics_common.h ****                         height_};
 240:../../libDaisy//src/hid/disp/graphics_common.h ****             case Alignment::centeredLeft:
 241:../../libDaisy//src/hid/disp/graphics_common.h ****                 return {other.x_,
 242:../../libDaisy//src/hid/disp/graphics_common.h ****                         int16_t(y_ + (other.GetCenterY() - GetCenterY())),
 243:../../libDaisy//src/hid/disp/graphics_common.h ****                         width_,
 244:../../libDaisy//src/hid/disp/graphics_common.h ****                         height_};
 245:../../libDaisy//src/hid/disp/graphics_common.h ****             case Alignment::centeredRight:
 246:../../libDaisy//src/hid/disp/graphics_common.h ****                 return {int16_t(other.GetRight() - width_),
 247:../../libDaisy//src/hid/disp/graphics_common.h ****                         int16_t(y_ + (other.GetCenterY() - GetCenterY())),
 248:../../libDaisy//src/hid/disp/graphics_common.h ****                         width_,
 249:../../libDaisy//src/hid/disp/graphics_common.h ****                         height_};
 250:../../libDaisy//src/hid/disp/graphics_common.h ****             case Alignment::centered:
 251:../../libDaisy//src/hid/disp/graphics_common.h ****                 return {int16_t(x_ + (other.GetCenterX() - GetCenterX())),
 252:../../libDaisy//src/hid/disp/graphics_common.h ****                         int16_t(y_ + (other.GetCenterY() - GetCenterY())),
 253:../../libDaisy//src/hid/disp/graphics_common.h ****                         width_,
 254:../../libDaisy//src/hid/disp/graphics_common.h ****                         height_};
 255:../../libDaisy//src/hid/disp/graphics_common.h ****             default: return {};
 256:../../libDaisy//src/hid/disp/graphics_common.h ****         }
 257:../../libDaisy//src/hid/disp/graphics_common.h ****     }
 258:../../libDaisy//src/hid/disp/graphics_common.h **** 
 259:../../libDaisy//src/hid/disp/graphics_common.h ****   private:
 260:../../libDaisy//src/hid/disp/graphics_common.h ****     int16_t x_, y_, width_, height_;
 261:../../libDaisy//src/hid/disp/graphics_common.h ****     int16_t max(int16_t a, int16_t b) { return (a > b) ? a : b; }
 3534              		.loc 9 261 13 view .LVU1092
 3535              	.LBE928:
 3536              	.LBE927:
 3537              		.loc 9 261 41 view .LVU1093
 3538              	.LBB930:
 3539              	.LBB929:
 3540              	.LBI929:
 3541              		.loc 9 261 13 view .LVU1094
 3542              	.LBE929:
 3543              	.LBE930:
 3544              		.loc 9 261 41 view .LVU1095
 3545              	.LBB931:
 3546              	.LBI931:
 657:lcdlib/daisy_ILI9341.hpp ****     {
 3547              		.loc 6 657 10 view .LVU1096
 657:lcdlib/daisy_ILI9341.hpp ****     {
 3548              		.loc 6 657 10 is_stmt 0 view .LVU1097
 3549              	.LBE931:
ARM GAS  /var/folders/cl/k1vt3d7567s5t107m3sv9whr0000gn/T//cclnrocj.s 			page 112


 659:lcdlib/daisy_ILI9341.hpp ****                  rect.GetY(),
 3550              		.loc 6 659 9 is_stmt 1 view .LVU1098
  56:../../libDaisy//src/hid/disp/graphics_common.h ****     int16_t GetY() const { return y_; }
 3551              		.loc 9 56 28 view .LVU1099
  57:../../libDaisy//src/hid/disp/graphics_common.h ****     int16_t GetWidth() const { return width_; }
 3552              		.loc 9 57 28 view .LVU1100
  58:../../libDaisy//src/hid/disp/graphics_common.h ****     int16_t GetHeight() const { return height_; }
 3553              		.loc 9 58 32 view .LVU1101
  59:../../libDaisy//src/hid/disp/graphics_common.h ****     int16_t GetRight() const { return x_ + width_; }
 3554              		.loc 9 59 33 view .LVU1102
 3555              	.LBB957:
 3556              	.LBB932:
 3557              	.LBI932:
 615:lcdlib/daisy_ILI9341.hpp ****                   uint_fast16_t y,
 3558              		.loc 6 615 10 view .LVU1103
 3559              	.LBB933:
 623:lcdlib/daisy_ILI9341.hpp ****         {
 3560              		.loc 6 623 29 view .LVU1104
 3561              	.LBB934:
 3562              	.LBB935:
 3563              	.LBB936:
1025:lcdlib/daisy_ILI9341.hpp ****             return;
 3564              		.loc 6 1025 17 is_stmt 0 view .LVU1105
 3565 0046 624B     		ldr	r3, .L92+4
 3566 0048 C822     		movs	r2, #200
 3567              	.LBB937:
 3568              	.LBB938:
 213:lcdlib/daisy_ILI9341.hpp ****     }
 3569              		.loc 6 213 30 view .LVU1106
 3570 004a 6427     		movs	r7, #100
 3571              	.LBE938:
 3572              	.LBE937:
1025:lcdlib/daisy_ILI9341.hpp ****             return;
 3573              		.loc 6 1025 17 view .LVU1107
 3574 004c B3F85410 		ldrh	r1, [r3, #84]
 3575              	.LBB945:
 3576              	.LBB939:
 202:lcdlib/daisy_ILI9341.hpp **** 
 3577              		.loc 6 202 14 view .LVU1108
 3578 0050 B3F82CB0 		ldrh	fp, [r3, #44]
 3579 0054 01FB02F2 		mul	r2, r1, r2
 3580              	.LBE939:
 3581              	.LBE945:
1025:lcdlib/daisy_ILI9341.hpp ****             return;
 3582              		.loc 6 1025 31 view .LVU1109
 3583 0058 B3F85680 		ldrh	r8, [r3, #86]
 3584              	.LBB946:
 3585              	.LBB940:
 212:lcdlib/daisy_ILI9341.hpp ****         frame_buffer[id + 1] = color & 0xFF;
 3586              		.loc 6 212 30 view .LVU1110
 3587 005c 4FEA1B2A 		lsr	r10, fp, #8
 3588 0060 501C     		adds	r0, r2, #1
 3589 0062 05EB020E 		add	lr, r5, r2
 3590 0066 4FEA4109 		lsl	r9, r1, #1
 3591 006a 2244     		add	r2, r2, r4
 3592 006c 2044     		add	r0, r0, r4
 213:lcdlib/daisy_ILI9341.hpp ****     }
ARM GAS  /var/folders/cl/k1vt3d7567s5t107m3sv9whr0000gn/T//cclnrocj.s 			page 113


 3593              		.loc 6 213 30 view .LVU1111
 3594 006e 5FFA8BFB 		uxtb	fp, fp
 3595              	.LVL254:
 3596              	.L79:
 213:lcdlib/daisy_ILI9341.hpp ****     }
 3597              		.loc 6 213 30 view .LVU1112
 3598              	.LBE940:
 3599              	.LBE946:
 3600              	.LBE936:
 3601              	.LBE935:
 625:lcdlib/daisy_ILI9341.hpp ****             {
 3602              		.loc 6 625 33 is_stmt 1 view .LVU1113
 3603              	.LBB954:
 3604              	.LBB951:
 3605              	.LBB947:
 3606              	.LBB941:
 213:lcdlib/daisy_ILI9341.hpp ****     }
 3607              		.loc 6 213 30 is_stmt 0 view .LVU1114
 3608 0072 6423     		movs	r3, #100
 3609              	.LVL255:
 3610              	.L78:
 213:lcdlib/daisy_ILI9341.hpp ****     }
 3611              		.loc 6 213 30 view .LVU1115
 3612              	.LBE941:
 3613              	.LBE947:
 3614              	.LBE951:
 3615              	.LBE954:
 627:lcdlib/daisy_ILI9341.hpp ****             }
 3616              		.loc 6 627 17 is_stmt 1 view .LVU1116
 3617              	.LBB955:
 3618              	.LBI935:
1020:lcdlib/daisy_ILI9341.hpp ****                    uint_fast16_t y,
 3619              		.loc 6 1020 10 view .LVU1117
 3620              	.LBB952:
1025:lcdlib/daisy_ILI9341.hpp ****             return;
 3621              		.loc 6 1025 9 view .LVU1118
1025:lcdlib/daisy_ILI9341.hpp ****             return;
 3622              		.loc 6 1025 9 is_stmt 0 view .LVU1119
 3623              	.LBE952:
 3624              	.LBE955:
 625:lcdlib/daisy_ILI9341.hpp ****             {
 3625              		.loc 6 625 13 is_stmt 1 view .LVU1120
 625:lcdlib/daisy_ILI9341.hpp ****             {
 3626              		.loc 6 625 33 view .LVU1121
 3627              	.LBB956:
 3628              	.LBB953:
1025:lcdlib/daisy_ILI9341.hpp ****             return;
 3629              		.loc 6 1025 9 is_stmt 0 view .LVU1122
 3630 0074 8B42     		cmp	r3, r1
 3631 0076 09D2     		bcs	.L77
1028:lcdlib/daisy_ILI9341.hpp **** 
 3632              		.loc 6 1028 9 is_stmt 1 view .LVU1123
 3633              	.LVL256:
1031:lcdlib/daisy_ILI9341.hpp **** 
 3634              		.loc 6 1031 9 view .LVU1124
 3635              	.LBB948:
 3636              	.LBI937:
ARM GAS  /var/folders/cl/k1vt3d7567s5t107m3sv9whr0000gn/T//cclnrocj.s 			page 114


 200:lcdlib/daisy_ILI9341.hpp ****     {
 3637              		.loc 6 200 10 view .LVU1125
 3638              	.LBB942:
 202:lcdlib/daisy_ILI9341.hpp **** 
 3639              		.loc 6 202 9 view .LVU1126
 204:lcdlib/daisy_ILI9341.hpp ****         {
 3640              		.loc 6 204 9 view .LVU1127
 210:lcdlib/daisy_ILI9341.hpp **** 
 3641              		.loc 6 210 9 view .LVU1128
 3642              	.LBE942:
 3643              	.LBE948:
1025:lcdlib/daisy_ILI9341.hpp ****             return;
 3644              		.loc 6 1025 23 is_stmt 0 view .LVU1129
 3645 0078 B845     		cmp	r8, r7
 3646              	.LBB949:
 3647              	.LBB943:
 210:lcdlib/daisy_ILI9341.hpp **** 
 3648              		.loc 6 210 23 view .LVU1130
 3649 007a 4FF0080C 		mov	ip, #8
 3650              	.LBE943:
 3651              	.LBE949:
1025:lcdlib/daisy_ILI9341.hpp ****             return;
 3652              		.loc 6 1025 23 view .LVU1131
 3653 007e 05D9     		bls	.L77
 3654              	.LBB950:
 3655              	.LBB944:
 212:lcdlib/daisy_ILI9341.hpp ****         frame_buffer[id + 1] = color & 0xFF;
 3656              		.loc 6 212 30 view .LVU1132
 3657 0080 02F813A0 		strb	r10, [r2, r3, lsl #1]
 210:lcdlib/daisy_ILI9341.hpp **** 
 3658              		.loc 6 210 23 view .LVU1133
 3659 0084 0EF813C0 		strb	ip, [lr, r3, lsl #1]
 212:lcdlib/daisy_ILI9341.hpp ****         frame_buffer[id + 1] = color & 0xFF;
 3660              		.loc 6 212 9 is_stmt 1 view .LVU1134
 213:lcdlib/daisy_ILI9341.hpp ****     }
 3661              		.loc 6 213 9 view .LVU1135
 213:lcdlib/daisy_ILI9341.hpp ****     }
 3662              		.loc 6 213 30 is_stmt 0 view .LVU1136
 3663 0088 00F813B0 		strb	fp, [r0, r3, lsl #1]
 3664              	.LVL257:
 3665              	.L77:
 213:lcdlib/daisy_ILI9341.hpp ****     }
 3666              		.loc 6 213 30 view .LVU1137
 3667              	.LBE944:
 3668              	.LBE950:
 3669              	.LBE953:
 3670              	.LBE956:
 625:lcdlib/daisy_ILI9341.hpp ****             {
 3671              		.loc 6 625 33 view .LVU1138
 3672 008c 0133     		adds	r3, r3, #1
 3673              	.LVL258:
 625:lcdlib/daisy_ILI9341.hpp ****             {
 3674              		.loc 6 625 33 view .LVU1139
 3675 008e 962B     		cmp	r3, #150
 3676 0090 F0D1     		bne	.L78
 3677              	.LBE934:
 623:lcdlib/daisy_ILI9341.hpp ****         {
ARM GAS  /var/folders/cl/k1vt3d7567s5t107m3sv9whr0000gn/T//cclnrocj.s 			page 115


 3678              		.loc 6 623 9 is_stmt 1 view .LVU1140
 3679              	.LVL259:
 623:lcdlib/daisy_ILI9341.hpp ****         {
 3680              		.loc 6 623 29 view .LVU1141
 3681 0092 0137     		adds	r7, r7, #1
 3682              	.LVL260:
 623:lcdlib/daisy_ILI9341.hpp ****         {
 3683              		.loc 6 623 29 is_stmt 0 view .LVU1142
 3684 0094 CE44     		add	lr, lr, r9
 3685 0096 4A44     		add	r2, r2, r9
 3686 0098 4844     		add	r0, r0, r9
 3687 009a 962F     		cmp	r7, #150
 3688 009c E9D1     		bne	.L79
 3689              	.LVL261:
 623:lcdlib/daisy_ILI9341.hpp ****         {
 3690              		.loc 6 623 29 view .LVU1143
 3691              	.LBE933:
 3692              	.LBE932:
 3693              	.LBE957:
  34:LoopyLCD.cpp  ****   driver.DrawRect(Rectangle(100, 100, 50, 50), COLOR_RED);
 3694              		.loc 8 34 3 is_stmt 1 view .LVU1144
 3695              	.LBB958:
 3696              	.LBI958:
  31:../../libDaisy//src/hid/disp/graphics_common.h ****     : x_(x), y_(y), width_(max(0, width)), height_(max(0, height))
 3697              		.loc 9 31 5 view .LVU1145
 3698              	.LBB959:
 3699              	.LBI959:
 3700              		.loc 9 261 13 view .LVU1146
 3701              	.LBE959:
 3702              	.LBE958:
 3703              		.loc 9 261 41 view .LVU1147
 3704              	.LBB961:
 3705              	.LBB960:
 3706              	.LBI960:
 3707              		.loc 9 261 13 view .LVU1148
 3708              	.LBE960:
 3709              	.LBE961:
 3710              		.loc 9 261 41 view .LVU1149
 3711              	.LBB962:
 3712              	.LBI962:
 647:lcdlib/daisy_ILI9341.hpp ****     {
 3713              		.loc 6 647 10 view .LVU1150
 647:lcdlib/daisy_ILI9341.hpp ****     {
 3714              		.loc 6 647 10 is_stmt 0 view .LVU1151
 3715              	.LBE962:
 649:lcdlib/daisy_ILI9341.hpp ****                  rect.GetY(),
 3716              		.loc 6 649 9 is_stmt 1 view .LVU1152
  56:../../libDaisy//src/hid/disp/graphics_common.h ****     int16_t GetY() const { return y_; }
 3717              		.loc 9 56 28 view .LVU1153
  57:../../libDaisy//src/hid/disp/graphics_common.h ****     int16_t GetWidth() const { return width_; }
 3718              		.loc 9 57 28 view .LVU1154
  58:../../libDaisy//src/hid/disp/graphics_common.h ****     int16_t GetHeight() const { return height_; }
 3719              		.loc 9 58 32 view .LVU1155
  59:../../libDaisy//src/hid/disp/graphics_common.h ****     int16_t GetRight() const { return x_ + width_; }
 3720              		.loc 9 59 33 view .LVU1156
 3721              	.LBB965:
 3722              	.LBB963:
ARM GAS  /var/folders/cl/k1vt3d7567s5t107m3sv9whr0000gn/T//cclnrocj.s 			page 116


 3723              	.LBI963:
 632:lcdlib/daisy_ILI9341.hpp ****                   uint16_t y,
 3724              		.loc 6 632 10 view .LVU1157
 3725              	.LBB964:
 639:lcdlib/daisy_ILI9341.hpp ****         auto y2 = y + h;
 3726              		.loc 6 639 9 view .LVU1158
 640:lcdlib/daisy_ILI9341.hpp ****         DrawLine(x, y, x, y2, color, alpha);
 3727              		.loc 6 640 9 view .LVU1159
 641:lcdlib/daisy_ILI9341.hpp ****         DrawLine(x, y, x2, y, color, alpha);
 3728              		.loc 6 641 9 view .LVU1160
 641:lcdlib/daisy_ILI9341.hpp ****         DrawLine(x, y, x2, y, color, alpha);
 3729              		.loc 6 641 17 is_stmt 0 view .LVU1161
 3730 009e 6423     		movs	r3, #100
 3731 00a0 4FF00809 		mov	r9, #8
 3732 00a4 4FF0FF0A 		mov	r10, #255
 3733 00a8 4948     		ldr	r0, .L92+4
 642:lcdlib/daisy_ILI9341.hpp ****         DrawLine(x, y2, x2, y2, color, alpha);
 3734              		.loc 6 642 17 view .LVU1162
 3735 00aa 9846     		mov	r8, r3
 641:lcdlib/daisy_ILI9341.hpp ****         DrawLine(x, y, x2, y, color, alpha);
 3736              		.loc 6 641 17 view .LVU1163
 3737 00ac 1A46     		mov	r2, r3
 3738 00ae 1946     		mov	r1, r3
 3739 00b0 0097     		str	r7, [sp]
 3740 00b2 CDE9019A 		strd	r9, r10, [sp, #4]
 3741 00b6 FFF7FEFF 		bl	_ZN8UiDriver8DrawLineEjjjjhh
 3742              	.LVL262:
 642:lcdlib/daisy_ILI9341.hpp ****         DrawLine(x, y2, x2, y2, color, alpha);
 3743              		.loc 6 642 9 is_stmt 1 view .LVU1164
 642:lcdlib/daisy_ILI9341.hpp ****         DrawLine(x, y2, x2, y2, color, alpha);
 3744              		.loc 6 642 17 is_stmt 0 view .LVU1165
 3745 00ba 3B46     		mov	r3, r7
 3746 00bc 4246     		mov	r2, r8
 3747 00be 4146     		mov	r1, r8
 3748 00c0 4348     		ldr	r0, .L92+4
 3749 00c2 CDF80080 		str	r8, [sp]
 3750 00c6 CDE9019A 		strd	r9, r10, [sp, #4]
 3751 00ca FFF7FEFF 		bl	_ZN8UiDriver8DrawLineEjjjjhh
 3752              	.LVL263:
 643:lcdlib/daisy_ILI9341.hpp ****         DrawLine(x2, y, x2, y2, color, alpha);
 3753              		.loc 6 643 9 is_stmt 1 view .LVU1166
 643:lcdlib/daisy_ILI9341.hpp ****         DrawLine(x2, y, x2, y2, color, alpha);
 3754              		.loc 6 643 17 is_stmt 0 view .LVU1167
 3755 00ce 3B46     		mov	r3, r7
 3756 00d0 3A46     		mov	r2, r7
 3757 00d2 4146     		mov	r1, r8
 3758 00d4 3E48     		ldr	r0, .L92+4
 3759 00d6 0097     		str	r7, [sp]
 3760 00d8 CDE9019A 		strd	r9, r10, [sp, #4]
 3761 00dc FFF7FEFF 		bl	_ZN8UiDriver8DrawLineEjjjjhh
 3762              	.LVL264:
 644:lcdlib/daisy_ILI9341.hpp ****     }
 3763              		.loc 6 644 9 is_stmt 1 view .LVU1168
 644:lcdlib/daisy_ILI9341.hpp ****     }
 3764              		.loc 6 644 17 is_stmt 0 view .LVU1169
 3765 00e0 4246     		mov	r2, r8
 3766 00e2 3B46     		mov	r3, r7
ARM GAS  /var/folders/cl/k1vt3d7567s5t107m3sv9whr0000gn/T//cclnrocj.s 			page 117


 3767 00e4 3946     		mov	r1, r7
 3768 00e6 3A48     		ldr	r0, .L92+4
 3769 00e8 0097     		str	r7, [sp]
 3770 00ea CDE9019A 		strd	r9, r10, [sp, #4]
 3771 00ee FFF7FEFF 		bl	_ZN8UiDriver8DrawLineEjjjjhh
 3772              	.LVL265:
 3773              	.L84:
 644:lcdlib/daisy_ILI9341.hpp ****     }
 3774              		.loc 6 644 17 view .LVU1170
 3775              	.LBE964:
 3776              	.LBE963:
 3777              	.LBE965:
  35:LoopyLCD.cpp  **** 
  36:LoopyLCD.cpp  ****   while(1)
 3778              		.loc 8 36 3 is_stmt 1 discriminator 1 view .LVU1171
  37:LoopyLCD.cpp  ****   {
  38:LoopyLCD.cpp  ****         // Update() is required to actually flush the screen buffer to the display
  39:LoopyLCD.cpp  ****         driver.Update();
 3779              		.loc 8 39 9 discriminator 1 view .LVU1172
 3780              		.loc 8 39 22 is_stmt 0 discriminator 1 view .LVU1173
 3781 00f2 3748     		ldr	r0, .L92+4
 3782 00f4 FFF7FEFF 		bl	_ZN8UiDriver6UpdateEv
 3783              	.LVL266:
  40:LoopyLCD.cpp  **** 		driver.Fill(COLOR_BLACK);
 3784              		.loc 8 40 3 is_stmt 1 discriminator 1 view .LVU1174
 3785              	.LBB966:
 3786              	.LBI966:
 565:lcdlib/daisy_ILI9341.hpp ****     {
 3787              		.loc 6 565 10 discriminator 1 view .LVU1175
 3788              	.LBE966:
 567:lcdlib/daisy_ILI9341.hpp ****         {
 3789              		.loc 6 567 9 discriminator 1 view .LVU1176
 3790              	.LBB974:
 3791              	.LBB967:
 567:lcdlib/daisy_ILI9341.hpp ****         {
 3792              		.loc 6 567 29 discriminator 1 view .LVU1177
 3793              	.LBB968:
 3794              	.LBB969:
 202:lcdlib/daisy_ILI9341.hpp **** 
 3795              		.loc 6 202 14 is_stmt 0 discriminator 1 view .LVU1178
 3796 00f8 354B     		ldr	r3, .L92+4
 3797 00fa 998B     		ldrh	r1, [r3, #28]
 3798              	.LBE969:
 3799              	.LBE968:
 567:lcdlib/daisy_ILI9341.hpp ****         {
 3800              		.loc 6 567 20 discriminator 1 view .LVU1179
 3801 00fc 0023     		movs	r3, #0
 3802              	.LBB972:
 3803              	.LBB970:
 212:lcdlib/daisy_ILI9341.hpp ****         frame_buffer[id + 1] = color & 0xFF;
 3804              		.loc 6 212 30 discriminator 1 view .LVU1180
 3805 00fe 080A     		lsrs	r0, r1, #8
 213:lcdlib/daisy_ILI9341.hpp ****     }
 3806              		.loc 6 213 30 discriminator 1 view .LVU1181
 3807 0100 C9B2     		uxtb	r1, r1
 3808              	.LVL267:
 3809              	.L80:
ARM GAS  /var/folders/cl/k1vt3d7567s5t107m3sv9whr0000gn/T//cclnrocj.s 			page 118


 213:lcdlib/daisy_ILI9341.hpp ****     }
 3810              		.loc 6 213 30 discriminator 1 view .LVU1182
 3811              	.LBE970:
 3812              	.LBE972:
 569:lcdlib/daisy_ILI9341.hpp ****         }
 3813              		.loc 6 569 13 is_stmt 1 view .LVU1183
 3814              	.LBB973:
 3815              	.LBI968:
 200:lcdlib/daisy_ILI9341.hpp ****     {
 3816              		.loc 6 200 10 view .LVU1184
 3817              	.LBB971:
 202:lcdlib/daisy_ILI9341.hpp **** 
 3818              		.loc 6 202 9 view .LVU1185
 204:lcdlib/daisy_ILI9341.hpp ****         {
 3819              		.loc 6 204 9 view .LVU1186
 210:lcdlib/daisy_ILI9341.hpp **** 
 3820              		.loc 6 210 9 view .LVU1187
 210:lcdlib/daisy_ILI9341.hpp **** 
 3821              		.loc 6 210 23 is_stmt 0 view .LVU1188
 3822 0102 0022     		movs	r2, #0
 212:lcdlib/daisy_ILI9341.hpp ****         frame_buffer[id + 1] = color & 0xFF;
 3823              		.loc 6 212 30 view .LVU1189
 3824 0104 04F81300 		strb	r0, [r4, r3, lsl #1]
 213:lcdlib/daisy_ILI9341.hpp ****     }
 3825              		.loc 6 213 30 view .LVU1190
 3826 0108 06F81310 		strb	r1, [r6, r3, lsl #1]
 210:lcdlib/daisy_ILI9341.hpp **** 
 3827              		.loc 6 210 23 view .LVU1191
 3828 010c 05F81320 		strb	r2, [r5, r3, lsl #1]
 212:lcdlib/daisy_ILI9341.hpp ****         frame_buffer[id + 1] = color & 0xFF;
 3829              		.loc 6 212 9 is_stmt 1 view .LVU1192
 213:lcdlib/daisy_ILI9341.hpp ****     }
 3830              		.loc 6 213 9 view .LVU1193
 3831              	.LVL268:
 213:lcdlib/daisy_ILI9341.hpp ****     }
 3832              		.loc 6 213 9 is_stmt 0 view .LVU1194
 3833              	.LBE971:
 3834              	.LBE973:
 567:lcdlib/daisy_ILI9341.hpp ****         {
 3835              		.loc 6 567 9 is_stmt 1 view .LVU1195
 3836 0110 0133     		adds	r3, r3, #1
 3837              	.LVL269:
 567:lcdlib/daisy_ILI9341.hpp ****         {
 3838              		.loc 6 567 29 view .LVU1196
 3839 0112 B3F5963F 		cmp	r3, #76800
 3840 0116 F4D1     		bne	.L80
 3841              	.LVL270:
 567:lcdlib/daisy_ILI9341.hpp ****         {
 3842              		.loc 6 567 29 is_stmt 0 view .LVU1197
 3843              	.LBE967:
 3844              	.LBE974:
  41:LoopyLCD.cpp  ****   driver.FillRect(Rectangle(100, 100, 50, 50), COLOR_RED);
 3845              		.loc 8 41 3 is_stmt 1 discriminator 1 view .LVU1198
 3846              	.LBB975:
 3847              	.LBI975:
  31:../../libDaisy//src/hid/disp/graphics_common.h ****     : x_(x), y_(y), width_(max(0, width)), height_(max(0, height))
 3848              		.loc 9 31 5 discriminator 1 view .LVU1199
ARM GAS  /var/folders/cl/k1vt3d7567s5t107m3sv9whr0000gn/T//cclnrocj.s 			page 119


 3849              	.LBB976:
 3850              	.LBI976:
 3851              		.loc 9 261 13 discriminator 1 view .LVU1200
 3852              	.LBE976:
 3853              	.LBE975:
 3854              		.loc 9 261 41 discriminator 1 view .LVU1201
 3855              	.LBB978:
 3856              	.LBB977:
 3857              	.LBI977:
 3858              		.loc 9 261 13 discriminator 1 view .LVU1202
 3859              	.LBE977:
 3860              	.LBE978:
 3861              		.loc 9 261 41 discriminator 1 view .LVU1203
 3862              	.LBB979:
 3863              	.LBI979:
 657:lcdlib/daisy_ILI9341.hpp ****     {
 3864              		.loc 6 657 10 discriminator 1 view .LVU1204
 657:lcdlib/daisy_ILI9341.hpp ****     {
 3865              		.loc 6 657 10 is_stmt 0 discriminator 1 view .LVU1205
 3866              	.LBE979:
 659:lcdlib/daisy_ILI9341.hpp ****                  rect.GetY(),
 3867              		.loc 6 659 9 is_stmt 1 discriminator 1 view .LVU1206
  56:../../libDaisy//src/hid/disp/graphics_common.h ****     int16_t GetY() const { return y_; }
 3868              		.loc 9 56 28 discriminator 1 view .LVU1207
  57:../../libDaisy//src/hid/disp/graphics_common.h ****     int16_t GetWidth() const { return width_; }
 3869              		.loc 9 57 28 discriminator 1 view .LVU1208
  58:../../libDaisy//src/hid/disp/graphics_common.h ****     int16_t GetHeight() const { return height_; }
 3870              		.loc 9 58 32 discriminator 1 view .LVU1209
  59:../../libDaisy//src/hid/disp/graphics_common.h ****     int16_t GetRight() const { return x_ + width_; }
 3871              		.loc 9 59 33 discriminator 1 view .LVU1210
 3872              	.LBB1005:
 3873              	.LBB980:
 3874              	.LBI980:
 615:lcdlib/daisy_ILI9341.hpp ****                   uint_fast16_t y,
 3875              		.loc 6 615 10 discriminator 1 view .LVU1211
 3876              	.LBB981:
 623:lcdlib/daisy_ILI9341.hpp ****         {
 3877              		.loc 6 623 29 discriminator 1 view .LVU1212
 3878              	.LBB982:
 3879              	.LBB983:
 3880              	.LBB984:
1025:lcdlib/daisy_ILI9341.hpp ****             return;
 3881              		.loc 6 1025 17 is_stmt 0 discriminator 1 view .LVU1213
 3882 0118 2D4B     		ldr	r3, .L92+4
 3883 011a 4FF0C80C 		mov	ip, #200
 3884              	.LBB985:
 3885              	.LBB986:
 213:lcdlib/daisy_ILI9341.hpp ****     }
 3886              		.loc 6 213 30 discriminator 1 view .LVU1214
 3887 011e 6427     		movs	r7, #100
 3888              	.LBE986:
 3889              	.LBE985:
1025:lcdlib/daisy_ILI9341.hpp ****             return;
 3890              		.loc 6 1025 17 discriminator 1 view .LVU1215
 3891 0120 B3F85420 		ldrh	r2, [r3, #84]
 3892              	.LBB993:
 3893              	.LBB987:
ARM GAS  /var/folders/cl/k1vt3d7567s5t107m3sv9whr0000gn/T//cclnrocj.s 			page 120


 202:lcdlib/daisy_ILI9341.hpp **** 
 3894              		.loc 6 202 14 discriminator 1 view .LVU1216
 3895 0124 B3F82C90 		ldrh	r9, [r3, #44]
 3896 0128 0CFB02FC 		mul	ip, ip, r2
 3897              	.LBE987:
 3898              	.LBE993:
1025:lcdlib/daisy_ILI9341.hpp ****             return;
 3899              		.loc 6 1025 31 discriminator 1 view .LVU1217
 3900 012c B3F85600 		ldrh	r0, [r3, #86]
 3901              	.LBB994:
 3902              	.LBB988:
 212:lcdlib/daisy_ILI9341.hpp ****         frame_buffer[id + 1] = color & 0xFF;
 3903              		.loc 6 212 30 discriminator 1 view .LVU1218
 3904 0130 4FEA192B 		lsr	fp, r9, #8
 3905 0134 0CF1010E 		add	lr, ip, #1
 3906 0138 05EB0C08 		add	r8, r5, ip
 3907 013c 4FEA420A 		lsl	r10, r2, #1
 3908 0140 A444     		add	ip, ip, r4
 213:lcdlib/daisy_ILI9341.hpp ****     }
 3909              		.loc 6 213 30 discriminator 1 view .LVU1219
 3910 0142 5FFA89F9 		uxtb	r9, r9
 3911 0146 A644     		add	lr, lr, r4
 3912              	.LVL271:
 3913              	.L83:
 213:lcdlib/daisy_ILI9341.hpp ****     }
 3914              		.loc 6 213 30 discriminator 1 view .LVU1220
 3915              	.LBE988:
 3916              	.LBE994:
 3917              	.LBE984:
 3918              	.LBE983:
 625:lcdlib/daisy_ILI9341.hpp ****             {
 3919              		.loc 6 625 33 is_stmt 1 view .LVU1221
 3920              	.LBB1002:
 3921              	.LBB999:
 3922              	.LBB995:
 3923              	.LBB989:
 213:lcdlib/daisy_ILI9341.hpp ****     }
 3924              		.loc 6 213 30 is_stmt 0 view .LVU1222
 3925 0148 6423     		movs	r3, #100
 3926              	.LVL272:
 3927              	.L82:
 213:lcdlib/daisy_ILI9341.hpp ****     }
 3928              		.loc 6 213 30 view .LVU1223
 3929              	.LBE989:
 3930              	.LBE995:
 3931              	.LBE999:
 3932              	.LBE1002:
 627:lcdlib/daisy_ILI9341.hpp ****             }
 3933              		.loc 6 627 17 is_stmt 1 view .LVU1224
 3934              	.LBB1003:
 3935              	.LBI983:
1020:lcdlib/daisy_ILI9341.hpp ****                    uint_fast16_t y,
 3936              		.loc 6 1020 10 view .LVU1225
 3937              	.LBB1000:
1025:lcdlib/daisy_ILI9341.hpp ****             return;
 3938              		.loc 6 1025 9 view .LVU1226
1025:lcdlib/daisy_ILI9341.hpp ****             return;
ARM GAS  /var/folders/cl/k1vt3d7567s5t107m3sv9whr0000gn/T//cclnrocj.s 			page 121


 3939              		.loc 6 1025 9 is_stmt 0 view .LVU1227
 3940              	.LBE1000:
 3941              	.LBE1003:
 625:lcdlib/daisy_ILI9341.hpp ****             {
 3942              		.loc 6 625 13 is_stmt 1 view .LVU1228
 625:lcdlib/daisy_ILI9341.hpp ****             {
 3943              		.loc 6 625 33 view .LVU1229
 3944              	.LBB1004:
 3945              	.LBB1001:
1025:lcdlib/daisy_ILI9341.hpp ****             return;
 3946              		.loc 6 1025 9 is_stmt 0 view .LVU1230
 3947 014a 9342     		cmp	r3, r2
 3948 014c 09D2     		bcs	.L81
1028:lcdlib/daisy_ILI9341.hpp **** 
 3949              		.loc 6 1028 9 is_stmt 1 view .LVU1231
 3950              	.LVL273:
1031:lcdlib/daisy_ILI9341.hpp **** 
 3951              		.loc 6 1031 9 view .LVU1232
 3952              	.LBB996:
 3953              	.LBI985:
 200:lcdlib/daisy_ILI9341.hpp ****     {
 3954              		.loc 6 200 10 view .LVU1233
 3955              	.LBB990:
 202:lcdlib/daisy_ILI9341.hpp **** 
 3956              		.loc 6 202 9 view .LVU1234
 204:lcdlib/daisy_ILI9341.hpp ****         {
 3957              		.loc 6 204 9 view .LVU1235
 210:lcdlib/daisy_ILI9341.hpp **** 
 3958              		.loc 6 210 9 view .LVU1236
 3959              	.LBE990:
 3960              	.LBE996:
1025:lcdlib/daisy_ILI9341.hpp ****             return;
 3961              		.loc 6 1025 23 is_stmt 0 view .LVU1237
 3962 014e 8742     		cmp	r7, r0
 3963              	.LBB997:
 3964              	.LBB991:
 210:lcdlib/daisy_ILI9341.hpp **** 
 3965              		.loc 6 210 23 view .LVU1238
 3966 0150 4FF00801 		mov	r1, #8
 3967              	.LBE991:
 3968              	.LBE997:
1025:lcdlib/daisy_ILI9341.hpp ****             return;
 3969              		.loc 6 1025 23 view .LVU1239
 3970 0154 05D2     		bcs	.L81
 3971              	.LBB998:
 3972              	.LBB992:
 212:lcdlib/daisy_ILI9341.hpp ****         frame_buffer[id + 1] = color & 0xFF;
 3973              		.loc 6 212 30 view .LVU1240
 3974 0156 0CF813B0 		strb	fp, [ip, r3, lsl #1]
 210:lcdlib/daisy_ILI9341.hpp **** 
 3975              		.loc 6 210 23 view .LVU1241
 3976 015a 08F81310 		strb	r1, [r8, r3, lsl #1]
 212:lcdlib/daisy_ILI9341.hpp ****         frame_buffer[id + 1] = color & 0xFF;
 3977              		.loc 6 212 9 is_stmt 1 view .LVU1242
 213:lcdlib/daisy_ILI9341.hpp ****     }
 3978              		.loc 6 213 9 view .LVU1243
 213:lcdlib/daisy_ILI9341.hpp ****     }
ARM GAS  /var/folders/cl/k1vt3d7567s5t107m3sv9whr0000gn/T//cclnrocj.s 			page 122


 3979              		.loc 6 213 30 is_stmt 0 view .LVU1244
 3980 015e 0EF81390 		strb	r9, [lr, r3, lsl #1]
 3981              	.LVL274:
 3982              	.L81:
 213:lcdlib/daisy_ILI9341.hpp ****     }
 3983              		.loc 6 213 30 view .LVU1245
 3984              	.LBE992:
 3985              	.LBE998:
 3986              	.LBE1001:
 3987              	.LBE1004:
 625:lcdlib/daisy_ILI9341.hpp ****             {
 3988              		.loc 6 625 33 view .LVU1246
 3989 0162 0133     		adds	r3, r3, #1
 3990              	.LVL275:
 625:lcdlib/daisy_ILI9341.hpp ****             {
 3991              		.loc 6 625 33 view .LVU1247
 3992 0164 962B     		cmp	r3, #150
 3993 0166 F0D1     		bne	.L82
 3994              	.LBE982:
 623:lcdlib/daisy_ILI9341.hpp ****         {
 3995              		.loc 6 623 9 is_stmt 1 view .LVU1248
 3996              	.LVL276:
 623:lcdlib/daisy_ILI9341.hpp ****         {
 3997              		.loc 6 623 29 view .LVU1249
 3998 0168 0137     		adds	r7, r7, #1
 3999              	.LVL277:
 623:lcdlib/daisy_ILI9341.hpp ****         {
 4000              		.loc 6 623 29 is_stmt 0 view .LVU1250
 4001 016a D044     		add	r8, r8, r10
 4002 016c D444     		add	ip, ip, r10
 4003 016e D644     		add	lr, lr, r10
 4004 0170 962F     		cmp	r7, #150
 4005 0172 E9D1     		bne	.L83
 4006              	.LVL278:
 623:lcdlib/daisy_ILI9341.hpp ****         {
 4007              		.loc 6 623 29 view .LVU1251
 4008              	.LBE981:
 4009              	.LBE980:
 4010              	.LBE1005:
  42:LoopyLCD.cpp  ****   driver.DrawRect(Rectangle(100, 100, 50, 50), COLOR_RED);
 4011              		.loc 8 42 3 is_stmt 1 discriminator 1 view .LVU1252
 4012              	.LBB1006:
 4013              	.LBI1006:
  31:../../libDaisy//src/hid/disp/graphics_common.h ****     : x_(x), y_(y), width_(max(0, width)), height_(max(0, height))
 4014              		.loc 9 31 5 discriminator 1 view .LVU1253
 4015              	.LBB1007:
 4016              	.LBI1007:
 4017              		.loc 9 261 13 discriminator 1 view .LVU1254
 4018              	.LBE1007:
 4019              	.LBE1006:
 4020              		.loc 9 261 41 discriminator 1 view .LVU1255
 4021              	.LBB1009:
 4022              	.LBB1008:
 4023              	.LBI1008:
 4024              		.loc 9 261 13 discriminator 1 view .LVU1256
 4025              	.LBE1008:
 4026              	.LBE1009:
ARM GAS  /var/folders/cl/k1vt3d7567s5t107m3sv9whr0000gn/T//cclnrocj.s 			page 123


 4027              		.loc 9 261 41 discriminator 1 view .LVU1257
 4028              	.LBB1010:
 4029              	.LBI1010:
 647:lcdlib/daisy_ILI9341.hpp ****     {
 4030              		.loc 6 647 10 discriminator 1 view .LVU1258
 647:lcdlib/daisy_ILI9341.hpp ****     {
 4031              		.loc 6 647 10 is_stmt 0 discriminator 1 view .LVU1259
 4032              	.LBE1010:
 649:lcdlib/daisy_ILI9341.hpp ****                  rect.GetY(),
 4033              		.loc 6 649 9 is_stmt 1 discriminator 1 view .LVU1260
  56:../../libDaisy//src/hid/disp/graphics_common.h ****     int16_t GetY() const { return y_; }
 4034              		.loc 9 56 28 discriminator 1 view .LVU1261
  57:../../libDaisy//src/hid/disp/graphics_common.h ****     int16_t GetWidth() const { return width_; }
 4035              		.loc 9 57 28 discriminator 1 view .LVU1262
  58:../../libDaisy//src/hid/disp/graphics_common.h ****     int16_t GetHeight() const { return height_; }
 4036              		.loc 9 58 32 discriminator 1 view .LVU1263
  59:../../libDaisy//src/hid/disp/graphics_common.h ****     int16_t GetRight() const { return x_ + width_; }
 4037              		.loc 9 59 33 discriminator 1 view .LVU1264
 4038              	.LBB1013:
 4039              	.LBB1011:
 4040              	.LBI1011:
 632:lcdlib/daisy_ILI9341.hpp ****                   uint16_t y,
 4041              		.loc 6 632 10 discriminator 1 view .LVU1265
 4042              	.LBB1012:
 639:lcdlib/daisy_ILI9341.hpp ****         auto y2 = y + h;
 4043              		.loc 6 639 9 discriminator 1 view .LVU1266
 640:lcdlib/daisy_ILI9341.hpp ****         DrawLine(x, y, x, y2, color, alpha);
 4044              		.loc 6 640 9 discriminator 1 view .LVU1267
 641:lcdlib/daisy_ILI9341.hpp ****         DrawLine(x, y, x2, y, color, alpha);
 4045              		.loc 6 641 9 discriminator 1 view .LVU1268
 641:lcdlib/daisy_ILI9341.hpp ****         DrawLine(x, y, x2, y, color, alpha);
 4046              		.loc 6 641 17 is_stmt 0 discriminator 1 view .LVU1269
 4047 0174 6423     		movs	r3, #100
 4048 0176 4FF0FF0A 		mov	r10, #255
 4049 017a 4FF00809 		mov	r9, #8
 4050 017e 1448     		ldr	r0, .L92+4
 642:lcdlib/daisy_ILI9341.hpp ****         DrawLine(x, y2, x2, y2, color, alpha);
 4051              		.loc 6 642 17 discriminator 1 view .LVU1270
 4052 0180 9846     		mov	r8, r3
 641:lcdlib/daisy_ILI9341.hpp ****         DrawLine(x, y, x2, y, color, alpha);
 4053              		.loc 6 641 17 discriminator 1 view .LVU1271
 4054 0182 1A46     		mov	r2, r3
 4055 0184 1946     		mov	r1, r3
 4056 0186 CDF808A0 		str	r10, [sp, #8]
 4057 018a CDE90079 		strd	r7, r9, [sp]
 4058 018e FFF7FEFF 		bl	_ZN8UiDriver8DrawLineEjjjjhh
 4059              	.LVL279:
 642:lcdlib/daisy_ILI9341.hpp ****         DrawLine(x, y2, x2, y2, color, alpha);
 4060              		.loc 6 642 9 is_stmt 1 discriminator 1 view .LVU1272
 642:lcdlib/daisy_ILI9341.hpp ****         DrawLine(x, y2, x2, y2, color, alpha);
 4061              		.loc 6 642 17 is_stmt 0 discriminator 1 view .LVU1273
 4062 0192 3B46     		mov	r3, r7
 4063 0194 4246     		mov	r2, r8
 4064 0196 4146     		mov	r1, r8
 4065 0198 0D48     		ldr	r0, .L92+4
 4066 019a CDF80080 		str	r8, [sp]
 4067 019e CDE9019A 		strd	r9, r10, [sp, #4]
ARM GAS  /var/folders/cl/k1vt3d7567s5t107m3sv9whr0000gn/T//cclnrocj.s 			page 124


 4068 01a2 FFF7FEFF 		bl	_ZN8UiDriver8DrawLineEjjjjhh
 4069              	.LVL280:
 643:lcdlib/daisy_ILI9341.hpp ****         DrawLine(x2, y, x2, y2, color, alpha);
 4070              		.loc 6 643 9 is_stmt 1 discriminator 1 view .LVU1274
 643:lcdlib/daisy_ILI9341.hpp ****         DrawLine(x2, y, x2, y2, color, alpha);
 4071              		.loc 6 643 17 is_stmt 0 discriminator 1 view .LVU1275
 4072 01a6 3B46     		mov	r3, r7
 4073 01a8 3A46     		mov	r2, r7
 4074 01aa 4146     		mov	r1, r8
 4075 01ac 0848     		ldr	r0, .L92+4
 4076 01ae 0097     		str	r7, [sp]
 4077 01b0 CDE9019A 		strd	r9, r10, [sp, #4]
 4078 01b4 FFF7FEFF 		bl	_ZN8UiDriver8DrawLineEjjjjhh
 4079              	.LVL281:
 644:lcdlib/daisy_ILI9341.hpp ****     }
 4080              		.loc 6 644 9 is_stmt 1 discriminator 1 view .LVU1276
 644:lcdlib/daisy_ILI9341.hpp ****     }
 4081              		.loc 6 644 17 is_stmt 0 discriminator 1 view .LVU1277
 4082 01b8 3B46     		mov	r3, r7
 4083 01ba 4246     		mov	r2, r8
 4084 01bc 3946     		mov	r1, r7
 4085 01be 0448     		ldr	r0, .L92+4
 4086 01c0 0097     		str	r7, [sp]
 4087 01c2 CDE9019A 		strd	r9, r10, [sp, #4]
 4088 01c6 FFF7FEFF 		bl	_ZN8UiDriver8DrawLineEjjjjhh
 4089              	.LVL282:
 644:lcdlib/daisy_ILI9341.hpp ****     }
 4090              		.loc 6 644 17 discriminator 1 view .LVU1278
 4091              	.LBE1012:
 4092              	.LBE1011:
 4093              	.LBE1013:
  36:LoopyLCD.cpp  ****   {
 4094              		.loc 8 36 3 is_stmt 1 discriminator 1 view .LVU1279
 4095 01ca 92E7     		b	.L84
 4096              	.L93:
 4097              		.align	2
 4098              	.L92:
 4099 01cc 00000000 		.word	.LANCHOR1
 4100 01d0 00000000 		.word	.LANCHOR2
 4101 01d4 00000000 		.word	_ZN19ILI9341SpiTransport9color_memE
 4102 01d8 00000000 		.word	_ZN19ILI9341SpiTransport12frame_bufferE
 4103              		.cfi_endproc
 4104              	.LFE4849:
 4106              		.section	.text.startup._GLOBAL__sub_I__ZN19ILI9341SpiTransport12frame_bufferE,"ax",%progbits
 4107              		.align	1
 4108              		.p2align 2,,3
 4109              		.syntax unified
 4110              		.thumb
 4111              		.thumb_func
 4113              	_GLOBAL__sub_I__ZN19ILI9341SpiTransport12frame_bufferE:
 4114              	.LFB5423:
  43:LoopyLCD.cpp  **** 		
  44:LoopyLCD.cpp  **** 		
  45:LoopyLCD.cpp  ****   }
  46:LoopyLCD.cpp  **** 
  47:LoopyLCD.cpp  **** 	//while(1) {}
  48:LoopyLCD.cpp  **** }
ARM GAS  /var/folders/cl/k1vt3d7567s5t107m3sv9whr0000gn/T//cclnrocj.s 			page 125


 4115              		.loc 8 48 1 view -0
 4116              		.cfi_startproc
 4117              		@ args = 0, pretend = 0, frame = 0
 4118              		@ frame_needed = 0, uses_anonymous_args = 0
 4119              	.LBB1040:
 4120              	.LBI1040:
 4121              		.loc 8 48 1 view .LVU1281
 4122              	.LVL283:
 4123              	.LBB1041:
 4124              	.LBB1042:
 4125              	.LBI1042:
  21:../../libDaisy//src/daisy_seed.h ****     ~DaisySeed() {}
 4126              		.loc 1 21 5 view .LVU1282
 4127              	.LBB1043:
 4128              	.LBB1044:
 4129              	.LBI1044:
 4130              		.file 10 "../../libDaisy//src/per/qspi.h"
   1:../../libDaisy//src/per/qspi.h **** #ifndef DSY_QSPI
   2:../../libDaisy//src/per/qspi.h **** #define DSY_QSPI /**< Macro */
   3:../../libDaisy//src/per/qspi.h **** 
   4:../../libDaisy//src/per/qspi.h **** #ifndef UNIT_TEST // for unit tests, a dummy implementation
   5:../../libDaisy//src/per/qspi.h **** 
   6:../../libDaisy//src/per/qspi.h **** #include <cstdint>
   7:../../libDaisy//src/per/qspi.h **** #include "daisy_core.h" // Added for dsy_gpio_pin typedef
   8:../../libDaisy//src/per/qspi.h **** 
   9:../../libDaisy//src/per/qspi.h **** #define DSY_QSPI_TEXT       \
  10:../../libDaisy//src/per/qspi.h ****     __attribute__((section( \
  11:../../libDaisy//src/per/qspi.h ****         ".qspiflash_text"))) /**< used for reading memory in memory_mapped mode. */
  12:../../libDaisy//src/per/qspi.h **** #define DSY_QSPI_DATA       \
  13:../../libDaisy//src/per/qspi.h ****     __attribute__((section( \
  14:../../libDaisy//src/per/qspi.h ****         ".qspiflash_data"))) /**< used for reading memory in memory_mapped mode. */
  15:../../libDaisy//src/per/qspi.h **** #define DSY_QSPI_BSS        \
  16:../../libDaisy//src/per/qspi.h ****     __attribute__((section( \
  17:../../libDaisy//src/per/qspi.h ****         ".qspiflash_bss"))) /**< used for reading memory in memory_mapped mode. */
  18:../../libDaisy//src/per/qspi.h **** 
  19:../../libDaisy//src/per/qspi.h **** namespace daisy
  20:../../libDaisy//src/per/qspi.h **** {
  21:../../libDaisy//src/per/qspi.h **** /** @addtogroup serial
  22:../../libDaisy//src/per/qspi.h **** @{
  23:../../libDaisy//src/per/qspi.h **** */
  24:../../libDaisy//src/per/qspi.h **** 
  25:../../libDaisy//src/per/qspi.h **** /** 
  26:../../libDaisy//src/per/qspi.h ****  Driver for QSPI peripheral to interface with external flash memory. \n 
  27:../../libDaisy//src/per/qspi.h ****     Currently supported QSPI Devices: \n 
  28:../../libDaisy//src/per/qspi.h ****     * IS25LP080D
  29:../../libDaisy//src/per/qspi.h **** */
  30:../../libDaisy//src/per/qspi.h **** class QSPIHandle
  31:../../libDaisy//src/per/qspi.h **** {
  32:../../libDaisy//src/per/qspi.h ****   public:
  33:../../libDaisy//src/per/qspi.h ****     enum Result
  34:../../libDaisy//src/per/qspi.h ****     {
  35:../../libDaisy//src/per/qspi.h ****         OK = 0,
  36:../../libDaisy//src/per/qspi.h ****         ERR
  37:../../libDaisy//src/per/qspi.h ****     };
  38:../../libDaisy//src/per/qspi.h **** 
  39:../../libDaisy//src/per/qspi.h ****     /** Indicates the current status of the module. 
  40:../../libDaisy//src/per/qspi.h ****          *  Warnings are indicated by a leading W.
ARM GAS  /var/folders/cl/k1vt3d7567s5t107m3sv9whr0000gn/T//cclnrocj.s 			page 126


  41:../../libDaisy//src/per/qspi.h ****          *  Errors are indicated by a leading E and cause an immediate exit.
  42:../../libDaisy//src/per/qspi.h ****          * 
  43:../../libDaisy//src/per/qspi.h ****          *  \param GOOD - No errors have been reported.
  44:../../libDaisy//src/per/qspi.h ****          *  \param E_HAL_ERROR - HAL code did not return HAL_OK.
  45:../../libDaisy//src/per/qspi.h ****          *  \param E_SWITCHING_MODES - An error was encountered while switching QSPI peripheral mod
  46:../../libDaisy//src/per/qspi.h ****          *  \param E_INVALID_MODE - QSPI should not be written to while the program is executing fr
  47:../../libDaisy//src/per/qspi.h ****          */
  48:../../libDaisy//src/per/qspi.h ****     enum Status
  49:../../libDaisy//src/per/qspi.h ****     {
  50:../../libDaisy//src/per/qspi.h ****         GOOD = 0,
  51:../../libDaisy//src/per/qspi.h ****         E_HAL_ERROR,
  52:../../libDaisy//src/per/qspi.h ****         E_SWITCHING_MODES,
  53:../../libDaisy//src/per/qspi.h ****         E_INVALID_MODE,
  54:../../libDaisy//src/per/qspi.h ****     };
  55:../../libDaisy//src/per/qspi.h **** 
  56:../../libDaisy//src/per/qspi.h ****     /** Configuration structure for interfacing with QSPI Driver */
  57:../../libDaisy//src/per/qspi.h ****     struct Config
  58:../../libDaisy//src/per/qspi.h ****     {
  59:../../libDaisy//src/per/qspi.h ****         /** Flash Devices supported. (Both of these are more-or-less the same, just different sizes
  60:../../libDaisy//src/per/qspi.h ****         enum Device
  61:../../libDaisy//src/per/qspi.h ****         {
  62:../../libDaisy//src/per/qspi.h ****             IS25LP080D,  /**< & */
  63:../../libDaisy//src/per/qspi.h ****             IS25LP064A,  /**< & */
  64:../../libDaisy//src/per/qspi.h ****             DEVICE_LAST, /**< & */
  65:../../libDaisy//src/per/qspi.h ****         };
  66:../../libDaisy//src/per/qspi.h **** 
  67:../../libDaisy//src/per/qspi.h ****         /** 
  68:../../libDaisy//src/per/qspi.h ****         Modes of operation.
  69:../../libDaisy//src/per/qspi.h ****         Memory Mapped mode: QSPI configured so that the QSPI can be
  70:../../libDaisy//src/per/qspi.h ****         read from starting address 0x90000000. Writing is not
  71:../../libDaisy//src/per/qspi.h ****         possible in this mode. \n 
  72:../../libDaisy//src/per/qspi.h ****         Indirect Polling mode: Device driver enabled. 
  73:../../libDaisy//src/per/qspi.h ****         */
  74:../../libDaisy//src/per/qspi.h ****         enum Mode
  75:../../libDaisy//src/per/qspi.h ****         {
  76:../../libDaisy//src/per/qspi.h ****             MEMORY_MAPPED,    /**< & */
  77:../../libDaisy//src/per/qspi.h ****             INDIRECT_POLLING, /**< & */
  78:../../libDaisy//src/per/qspi.h ****             MODE_LAST,
  79:../../libDaisy//src/per/qspi.h ****         };
  80:../../libDaisy//src/per/qspi.h **** 
  81:../../libDaisy//src/per/qspi.h ****         //SCK,  CE# (active low)
  82:../../libDaisy//src/per/qspi.h ****         struct
  83:../../libDaisy//src/per/qspi.h ****         {
  84:../../libDaisy//src/per/qspi.h ****             dsy_gpio_pin io0; /**< & */
  85:../../libDaisy//src/per/qspi.h ****             dsy_gpio_pin io1; /**< & */
  86:../../libDaisy//src/per/qspi.h ****             dsy_gpio_pin io2; /**< & */
  87:../../libDaisy//src/per/qspi.h ****             dsy_gpio_pin io3; /**< & */
  88:../../libDaisy//src/per/qspi.h ****             dsy_gpio_pin clk; /**< & */
  89:../../libDaisy//src/per/qspi.h ****             dsy_gpio_pin ncs; /**< & */
  90:../../libDaisy//src/per/qspi.h ****         } pin_config;
  91:../../libDaisy//src/per/qspi.h **** 
  92:../../libDaisy//src/per/qspi.h ****         Device device;
  93:../../libDaisy//src/per/qspi.h ****         Mode   mode;
  94:../../libDaisy//src/per/qspi.h ****     };
  95:../../libDaisy//src/per/qspi.h **** 
  96:../../libDaisy//src/per/qspi.h ****     /** 
  97:../../libDaisy//src/per/qspi.h ****         Initializes QSPI peripheral, and Resets, and prepares memory for access.
ARM GAS  /var/folders/cl/k1vt3d7567s5t107m3sv9whr0000gn/T//cclnrocj.s 			page 127


  98:../../libDaisy//src/per/qspi.h ****         \param config should be populated with the mode, device and pin_config before calling this 
  99:../../libDaisy//src/per/qspi.h ****         \return Result::OK or Result::ERR
 100:../../libDaisy//src/per/qspi.h ****         */
 101:../../libDaisy//src/per/qspi.h ****     Result Init(const Config& config);
 102:../../libDaisy//src/per/qspi.h **** 
 103:../../libDaisy//src/per/qspi.h ****     /** Returns the current config. */
 104:../../libDaisy//src/per/qspi.h ****     const Config& GetConfig() const;
 105:../../libDaisy//src/per/qspi.h **** 
 106:../../libDaisy//src/per/qspi.h ****     // Couldn't this just be called before anything else in init? That
 107:../../libDaisy//src/per/qspi.h ****     // would make manually calling it unnecessary.
 108:../../libDaisy//src/per/qspi.h ****     /** 
 109:../../libDaisy//src/per/qspi.h ****         Deinitializes the peripheral
 110:../../libDaisy//src/per/qspi.h ****         This should be called before reinitializing QSPI in a different mode.
 111:../../libDaisy//src/per/qspi.h ****         \return Result::OK or Result::ERR
 112:../../libDaisy//src/per/qspi.h ****         */
 113:../../libDaisy//src/per/qspi.h ****     Result DeInit();
 114:../../libDaisy//src/per/qspi.h **** 
 115:../../libDaisy//src/per/qspi.h ****     /** 
 116:../../libDaisy//src/per/qspi.h ****         Writes a single page to to the specified address on the QSPI chip.
 117:../../libDaisy//src/per/qspi.h ****         For IS25LP*, page size is 256 bytes.
 118:../../libDaisy//src/per/qspi.h ****         \param address Address to write to
 119:../../libDaisy//src/per/qspi.h ****         \param size Buffer size
 120:../../libDaisy//src/per/qspi.h ****         \param buffer Buffer to write
 121:../../libDaisy//src/per/qspi.h ****         \return Result::OK or Result::ERR
 122:../../libDaisy//src/per/qspi.h ****         */
 123:../../libDaisy//src/per/qspi.h ****     Result WritePage(uint32_t address, uint32_t size, uint8_t* buffer);
 124:../../libDaisy//src/per/qspi.h **** 
 125:../../libDaisy//src/per/qspi.h ****     /** 
 126:../../libDaisy//src/per/qspi.h ****         Writes data in buffer to to the QSPI. Starting at address to address+size 
 127:../../libDaisy//src/per/qspi.h ****         \param address Address to write to
 128:../../libDaisy//src/per/qspi.h ****         \param size Buffer size
 129:../../libDaisy//src/per/qspi.h ****         \param buffer Buffer to write
 130:../../libDaisy//src/per/qspi.h ****         \return Result::OK or Result::ERR
 131:../../libDaisy//src/per/qspi.h ****         */
 132:../../libDaisy//src/per/qspi.h ****     Result Write(uint32_t address, uint32_t size, uint8_t* buffer);
 133:../../libDaisy//src/per/qspi.h **** 
 134:../../libDaisy//src/per/qspi.h ****     /** 
 135:../../libDaisy//src/per/qspi.h ****         Erases the area specified on the chip.
 136:../../libDaisy//src/per/qspi.h ****         Erasures will happen by 4K, 32K or 64K increments.
 137:../../libDaisy//src/per/qspi.h ****         Smallest erase possible is 4kB at a time. (on IS25LP*)
 138:../../libDaisy//src/per/qspi.h ****         \param start_addr Address to begin erasing from
 139:../../libDaisy//src/per/qspi.h ****         \param end_addr  Address to stop erasing at
 140:../../libDaisy//src/per/qspi.h ****         \return Result::OK or Result::ERR
 141:../../libDaisy//src/per/qspi.h ****         */
 142:../../libDaisy//src/per/qspi.h ****     Result Erase(uint32_t start_addr, uint32_t end_addr);
 143:../../libDaisy//src/per/qspi.h **** 
 144:../../libDaisy//src/per/qspi.h ****     /**  
 145:../../libDaisy//src/per/qspi.h ****          Erases a single sector of the chip.  
 146:../../libDaisy//src/per/qspi.h ****         TODO: Document the size of this function. 
 147:../../libDaisy//src/per/qspi.h ****         \param address Address of sector to erase
 148:../../libDaisy//src/per/qspi.h ****         \return Result::OK or Result::ERR
 149:../../libDaisy//src/per/qspi.h ****         */
 150:../../libDaisy//src/per/qspi.h ****     Result EraseSector(uint32_t address);
 151:../../libDaisy//src/per/qspi.h **** 
 152:../../libDaisy//src/per/qspi.h ****     /** Returns the current class status. Useful for debugging.
 153:../../libDaisy//src/per/qspi.h ****      *  \returns Status
 154:../../libDaisy//src/per/qspi.h ****      */
ARM GAS  /var/folders/cl/k1vt3d7567s5t107m3sv9whr0000gn/T//cclnrocj.s 			page 128


 155:../../libDaisy//src/per/qspi.h ****     Status GetStatus();
 156:../../libDaisy//src/per/qspi.h **** 
 157:../../libDaisy//src/per/qspi.h ****     /** Returns a pointer to the actual memory used 
 158:../../libDaisy//src/per/qspi.h ****      *  The memory at this address is read-only
 159:../../libDaisy//src/per/qspi.h ****      *  to write to it use the Write function.
 160:../../libDaisy//src/per/qspi.h ****      * 
 161:../../libDaisy//src/per/qspi.h ****      *  \param offset returns the pointer starting this 
 162:../../libDaisy//src/per/qspi.h ****      *                many bytes into the memory
 163:../../libDaisy//src/per/qspi.h ****     */
 164:../../libDaisy//src/per/qspi.h ****     void* GetData(uint32_t offset = 0);
 165:../../libDaisy//src/per/qspi.h **** 
 166:../../libDaisy//src/per/qspi.h ****     QSPIHandle() : pimpl_(nullptr) {}
 4131              		.loc 10 166 5 view .LVU1283
 4132              	.LBE1044:
 4133              	.LBE1043:
 4134              	.LBE1042:
 4135              	.LBE1041:
 4136              	.LBE1040:
 4137              		.loc 8 48 1 is_stmt 0 view .LVU1284
 4138 0000 10B5     		push	{r4, lr}
 4139              		.cfi_def_cfa_offset 8
 4140              		.cfi_offset 4, -8
 4141              		.cfi_offset 14, -4
 4142              	.LBB1074:
 4143              	.LBB1073:
 4144              	.LBB1062:
 4145              	.LBB1060:
 4146              	.LBB1049:
 4147              	.LBB1045:
 4148              	.LBB1046:
 4149              		.loc 10 166 34 view .LVU1285
 4150 0002 0D48     		ldr	r0, .L96
 4151 0004 0024     		movs	r4, #0
 4152              	.LBE1046:
 4153              	.LBE1045:
 4154              	.LBE1049:
 4155              	.LBE1060:
 4156              	.LBE1062:
   9:LoopyLCD.cpp  **** UiDriver driver;
 4157              		.loc 8 9 11 view .LVU1286
 4158 0006 0D4A     		ldr	r2, .L96+4
 4159 0008 0D49     		ldr	r1, .L96+8
 4160              	.LBB1063:
 4161              	.LBB1061:
 4162              	.LBB1050:
 4163              	.LBB1048:
 4164              	.LBB1047:
 4165              		.loc 10 166 34 view .LVU1287
 4166 000a 0460     		str	r4, [r0]
 4167              	.LVL284:
 4168              		.loc 10 166 34 view .LVU1288
 4169              	.LBE1047:
 4170              	.LBE1048:
 4171              	.LBE1050:
 4172              	.LBB1051:
 4173              	.LBI1051:
  95:../../libDaisy//src/hid/audio.h ****     ~AudioHandle() {}
ARM GAS  /var/folders/cl/k1vt3d7567s5t107m3sv9whr0000gn/T//cclnrocj.s 			page 129


 4174              		.loc 5 95 5 is_stmt 1 view .LVU1289
 4175              	.LBB1052:
 4176              	.LBB1053:
  95:../../libDaisy//src/hid/audio.h ****     ~AudioHandle() {}
 4177              		.loc 5 95 35 is_stmt 0 view .LVU1290
 4178 000c 4461     		str	r4, [r0, #20]
 4179              	.LVL285:
  95:../../libDaisy//src/hid/audio.h ****     ~AudioHandle() {}
 4180              		.loc 5 95 35 view .LVU1291
 4181              	.LBE1053:
 4182              	.LBE1052:
 4183              	.LBE1051:
 4184              	.LBB1054:
 4185              	.LBI1054:
  92:../../libDaisy//src/per/adc.h ****     ~AdcHandle() {}
 4186              		.loc 4 92 5 is_stmt 1 view .LVU1292
  92:../../libDaisy//src/per/adc.h ****     ~AdcHandle() {}
 4187              		.loc 4 92 5 is_stmt 0 view .LVU1293
 4188              	.LBE1054:
 4189              	.LBB1055:
 4190              	.LBI1055:
 4191              		.file 11 "../../libDaisy//src/per/dac.h"
   1:../../libDaisy//src/per/dac.h **** #pragma once
   2:../../libDaisy//src/per/dac.h **** #ifndef DSY_DAC_H
   3:../../libDaisy//src/per/dac.h **** #define DSY_DAC_H
   4:../../libDaisy//src/per/dac.h **** 
   5:../../libDaisy//src/per/dac.h **** #include "daisy_core.h"
   6:../../libDaisy//src/per/dac.h **** 
   7:../../libDaisy//src/per/dac.h **** namespace daisy
   8:../../libDaisy//src/per/dac.h **** {
   9:../../libDaisy//src/per/dac.h **** /** @brief DAC handle for Built-in DAC Peripheral 
  10:../../libDaisy//src/per/dac.h ****  *  @ingroup per_analog
  11:../../libDaisy//src/per/dac.h ****  ** 
  12:../../libDaisy//src/per/dac.h ****  ** For now only Normal Mode is supported,
  13:../../libDaisy//src/per/dac.h ****  ** Sample and hold mode provides reduced power consumption, but requires a bit more setup.
  14:../../libDaisy//src/per/dac.h ****  **
  15:../../libDaisy//src/per/dac.h ****  ** For now connecting the DAC through other internal peripherals is also not supported.
  16:../../libDaisy//src/per/dac.h ****  **
  17:../../libDaisy//src/per/dac.h ****  ** Since the DAC channels have dedicated pins we don't need to pass in a pin config like with
  18:../../libDaisy//src/per/dac.h ****  ** other modules. However, it is still important to not try to use the DAC pins for anything else.
  19:../../libDaisy//src/per/dac.h ****  ** DAC Channel 1 is on PA4, and DAC Channel 2 is on PA5
  20:../../libDaisy//src/per/dac.h ****  ***/
  21:../../libDaisy//src/per/dac.h **** class DacHandle
  22:../../libDaisy//src/per/dac.h **** {
  23:../../libDaisy//src/per/dac.h ****   public:
  24:../../libDaisy//src/per/dac.h ****     /** Return Values for the DacHandle class */
  25:../../libDaisy//src/per/dac.h ****     enum class Result
  26:../../libDaisy//src/per/dac.h ****     {
  27:../../libDaisy//src/per/dac.h ****         OK,
  28:../../libDaisy//src/per/dac.h ****         ERR,
  29:../../libDaisy//src/per/dac.h ****     };
  30:../../libDaisy//src/per/dac.h **** 
  31:../../libDaisy//src/per/dac.h ****     /** Selects which channel(s) will be configured for use. */
  32:../../libDaisy//src/per/dac.h ****     enum class Channel
  33:../../libDaisy//src/per/dac.h ****     {
  34:../../libDaisy//src/per/dac.h ****         ONE,
  35:../../libDaisy//src/per/dac.h ****         TWO,
ARM GAS  /var/folders/cl/k1vt3d7567s5t107m3sv9whr0000gn/T//cclnrocj.s 			page 130


  36:../../libDaisy//src/per/dac.h ****         BOTH,
  37:../../libDaisy//src/per/dac.h ****     };
  38:../../libDaisy//src/per/dac.h **** 
  39:../../libDaisy//src/per/dac.h ****     /** Sets the Mode for the DAC channels.
  40:../../libDaisy//src/per/dac.h ****      **
  41:../../libDaisy//src/per/dac.h ****      ** Polling mode uses the blocking mode to transmit a single value at a time.
  42:../../libDaisy//src/per/dac.h ****      **
  43:../../libDaisy//src/per/dac.h ****      ** DMA mode uses a buffer, and periodically transmits it triggering a 
  44:../../libDaisy//src/per/dac.h ****      ** callback to fill the buffer when it is ready for more samples.
  45:../../libDaisy//src/per/dac.h ****      ***/
  46:../../libDaisy//src/per/dac.h ****     enum class Mode
  47:../../libDaisy//src/per/dac.h ****     {
  48:../../libDaisy//src/per/dac.h ****         POLLING,
  49:../../libDaisy//src/per/dac.h ****         DMA,
  50:../../libDaisy//src/per/dac.h ****     };
  51:../../libDaisy//src/per/dac.h **** 
  52:../../libDaisy//src/per/dac.h ****     /** Sets the number of bits per sample transmitted out of the DAC.
  53:../../libDaisy//src/per/dac.h ****      ** The output range will be: 0V - VDDA
  54:../../libDaisy//src/per/dac.h ****      ** The resolution will be roughly: bitdepth / (VDDA - 0V) 
  55:../../libDaisy//src/per/dac.h ****      ***/
  56:../../libDaisy//src/per/dac.h ****     enum class BitDepth
  57:../../libDaisy//src/per/dac.h ****     {
  58:../../libDaisy//src/per/dac.h ****         BITS_8,
  59:../../libDaisy//src/per/dac.h ****         BITS_12
  60:../../libDaisy//src/per/dac.h ****     };
  61:../../libDaisy//src/per/dac.h **** 
  62:../../libDaisy//src/per/dac.h ****     /** Sets whether the DAC output is buffered for higher drive ability. */
  63:../../libDaisy//src/per/dac.h ****     enum class BufferState
  64:../../libDaisy//src/per/dac.h ****     {
  65:../../libDaisy//src/per/dac.h ****         ENABLED,
  66:../../libDaisy//src/per/dac.h ****         DISABLED,
  67:../../libDaisy//src/per/dac.h ****     };
  68:../../libDaisy//src/per/dac.h **** 
  69:../../libDaisy//src/per/dac.h ****     /** Configuration structure for initializing the DAC structure. */
  70:../../libDaisy//src/per/dac.h ****     struct Config
  71:../../libDaisy//src/per/dac.h ****     {
  72:../../libDaisy//src/per/dac.h ****         /** Target Samplerate in Hz used to configure the internal 
  73:../../libDaisy//src/per/dac.h ****          ** timebase for DMA mode. Does nothing in POLLING mode.
  74:../../libDaisy//src/per/dac.h ****          ** If the value is 0 at Init time this will default to 48000Hz 
  75:../../libDaisy//src/per/dac.h ****          ** otherwise the driver will attempt meet the target.*/
  76:../../libDaisy//src/per/dac.h ****         uint32_t target_samplerate;
  77:../../libDaisy//src/per/dac.h **** 
  78:../../libDaisy//src/per/dac.h ****         Channel     chn;
  79:../../libDaisy//src/per/dac.h ****         Mode        mode;
  80:../../libDaisy//src/per/dac.h ****         BitDepth    bitdepth;
  81:../../libDaisy//src/per/dac.h ****         BufferState buff_state;
  82:../../libDaisy//src/per/dac.h ****     };
  83:../../libDaisy//src/per/dac.h **** 
  84:../../libDaisy//src/per/dac.h ****     DacHandle() : pimpl_(nullptr) {}
 4192              		.loc 11 84 5 is_stmt 1 view .LVU1294
 4193              	.LBB1056:
 4194              	.LBB1057:
 4195              		.loc 11 84 33 is_stmt 0 view .LVU1295
 4196 000e 0462     		str	r4, [r0, #32]
 4197              	.LVL286:
 4198              		.loc 11 84 33 view .LVU1296
 4199              	.LBE1057:
ARM GAS  /var/folders/cl/k1vt3d7567s5t107m3sv9whr0000gn/T//cclnrocj.s 			page 131


 4200              	.LBE1056:
 4201              	.LBE1055:
 4202              	.LBB1058:
 4203              	.LBI1058:
  40:../../libDaisy//src/hid/usb.h **** 
 4204              		.loc 3 40 5 is_stmt 1 view .LVU1297
  40:../../libDaisy//src/hid/usb.h **** 
 4205              		.loc 3 40 5 is_stmt 0 view .LVU1298
 4206              	.LBE1058:
 4207              	.LBB1059:
 4208              	.LBI1059:
  77:../../libDaisy//src/sys/system.h ****     ~System() {}
 4209              		.loc 2 77 5 is_stmt 1 view .LVU1299
  77:../../libDaisy//src/sys/system.h ****     ~System() {}
 4210              		.loc 2 77 5 is_stmt 0 view .LVU1300
 4211              	.LBE1059:
 4212              	.LBE1061:
 4213              	.LBE1063:
   9:LoopyLCD.cpp  **** UiDriver driver;
 4214              		.loc 8 9 11 view .LVU1301
 4215 0010 FFF7FEFF 		bl	__aeabi_atexit
 4216              	.LVL287:
 4217              	.LBB1064:
 4218              	.LBI1064:
 311:lcdlib/daisy_ILI9341.hpp **** {
 4219              		.loc 6 311 7 is_stmt 1 view .LVU1302
 4220              	.LBB1065:
 4221              	.LBB1066:
 4222              	.LBI1066:
  52:lcdlib/daisy_ILI9341.hpp **** {
 4223              		.loc 6 52 7 view .LVU1303
 4224              	.LBB1067:
 4225 0014 0B4B     		ldr	r3, .L96+12
 4226 0016 4FF44840 		mov	r0, #51200
 4227              	.LBE1067:
 4228              	.LBE1066:
 311:lcdlib/daisy_ILI9341.hpp **** {
 4229              		.loc 6 311 7 is_stmt 0 view .LVU1304
 4230 001a 1421     		movs	r1, #20
 4231 001c 0D22     		movs	r2, #13
 4232              	.LBB1072:
 4233              	.LBB1071:
  52:lcdlib/daisy_ILI9341.hpp **** {
 4234              		.loc 6 52 7 view .LVU1305
 4235 001e 1C73     		strb	r4, [r3, #12]
 4236 0020 1C61     		str	r4, [r3, #16]
 4237 0022 9882     		strh	r0, [r3, #20]	@ movhi
 4238              	.LVL288:
 4239              	.LBB1068:
 4240              	.LBI1068:
  94:../../libDaisy//src/per/spi.h ****         }
  95:../../libDaisy//src/per/spi.h **** 
  96:../../libDaisy//src/per/spi.h ****         Peripheral    periph;
  97:../../libDaisy//src/per/spi.h ****         Mode          mode;
  98:../../libDaisy//src/per/spi.h ****         Direction     direction;
  99:../../libDaisy//src/per/spi.h ****         unsigned long datasize;
 100:../../libDaisy//src/per/spi.h ****         ClockPolarity clock_polarity;
ARM GAS  /var/folders/cl/k1vt3d7567s5t107m3sv9whr0000gn/T//cclnrocj.s 			page 132


 101:../../libDaisy//src/per/spi.h ****         ClockPhase    clock_phase;
 102:../../libDaisy//src/per/spi.h ****         NSS           nss;
 103:../../libDaisy//src/per/spi.h ****         BaudPrescaler baud_prescaler;
 104:../../libDaisy//src/per/spi.h ****     };
 105:../../libDaisy//src/per/spi.h **** 
 106:../../libDaisy//src/per/spi.h ****     SpiHandle() : pimpl_(nullptr) {}
 4241              		.loc 7 106 5 is_stmt 1 view .LVU1306
 4242              	.LBB1069:
 4243              	.LBB1070:
 4244              		.loc 7 106 33 is_stmt 0 view .LVU1307
 4245 0024 9C61     		str	r4, [r3, #24]
 4246              	.LVL289:
 4247              		.loc 7 106 33 view .LVU1308
 4248              	.LBE1070:
 4249              	.LBE1069:
 4250              	.LBE1068:
 4251              	.LBE1071:
 4252              	.LBE1072:
 311:lcdlib/daisy_ILI9341.hpp **** {
 4253              		.loc 6 311 7 view .LVU1309
 4254 0026 83F85910 		strb	r1, [r3, #89]
 4255 002a 83F85A20 		strb	r2, [r3, #90]
 4256 002e A3F86040 		strh	r4, [r3, #96]	@ movhi
 4257 0032 A3F86640 		strh	r4, [r3, #102]	@ movhi
 4258              	.LVL290:
 311:lcdlib/daisy_ILI9341.hpp **** {
 4259              		.loc 6 311 7 view .LVU1310
 4260              	.LBE1065:
 4261              	.LBE1064:
 4262              	.LBE1073:
 4263              	.LBE1074:
 4264              		.loc 8 48 1 view .LVU1311
 4265 0036 10BD     		pop	{r4, pc}
 4266              	.L97:
 4267              		.align	2
 4268              	.L96:
 4269 0038 00000000 		.word	.LANCHOR1
 4270 003c 00000000 		.word	__dso_handle
 4271 0040 00000000 		.word	_ZN5daisy9DaisySeedD1Ev
 4272 0044 00000000 		.word	.LANCHOR2
 4273              		.cfi_endproc
 4274              	.LFE5423:
 4276              		.section	.init_array,"aw",%init_array
 4277              		.align	2
 4278 0000 00000000 		.word	_GLOBAL__sub_I__ZN19ILI9341SpiTransport12frame_bufferE(target1)
 4279              		.global	driver
 4280              		.global	hw
 4281              		.global	_ZN19ILI9341SpiTransport9color_memE
 4282              		.global	_ZN19ILI9341SpiTransport12frame_bufferE
 4283              		.section	.rodata
 4284              		.align	2
 4285              		.set	.LANCHOR0,. + 0
 4286              	.LC0:
 4287 0000 06       		.byte	6
 4288 0001 0B       		.byte	11
 4289 0002 0000     		.space	2
 4290              	.LC1:
ARM GAS  /var/folders/cl/k1vt3d7567s5t107m3sv9whr0000gn/T//cclnrocj.s 			page 133


 4291 0004 01       		.byte	1
 4292 0005 05       		.byte	5
 4293 0006 0000     		.space	2
 4294              	.LC2:
 4295 0008 06       		.byte	6
 4296 0009 0A       		.byte	10
 4297 000a 0000     		.space	2
 4298              	.LC3:
 4299 000c 392C0034 		.ascii	"9,\0004\002"
 4299      02
 4300 0011 000000   		.space	3
 4301              	.LC4:
 4302 0014 00C130   		.ascii	"\000\3010"
 4303 0017 00       		.space	1
 4304              	.LC5:
 4305 0018 850078   		.ascii	"\205\000x"
 4306 001b 00       		.space	1
 4307              	.LC8:
 4308 001c 000E1403 		.ascii	"\000\016\024\003\021\0071\301H\010\017\01416\017"
 4308      110731C1 
 4308      48080F0C 
 4308      31360F
 4309              		.section	.bss.driver,"aw",%nobits
 4310              		.align	2
 4311              		.set	.LANCHOR2,. + 0
 4314              	driver:
 4315 0000 00000000 		.space	104
 4315      00000000 
 4315      00000000 
 4315      00000000 
 4315      00000000 
 4316              		.section	.bss.hw,"aw",%nobits
 4317              		.align	2
 4318              		.set	.LANCHOR1,. + 0
 4321              	hw:
 4322 0000 00000000 		.space	60
 4322      00000000 
 4322      00000000 
 4322      00000000 
 4322      00000000 
 4323              		.section	.sdram_bss,"aw"
 4324              		.align	2
 4327              	_ZN19ILI9341SpiTransport9color_memE:
 4328 0000 00000000 		.space	76800
 4328      00000000 
 4328      00000000 
 4328      00000000 
 4328      00000000 
 4329              		.section	.sram1_bss,"aw"
 4330              		.align	2
 4333              	_ZN19ILI9341SpiTransport12frame_bufferE:
 4334 0000 00000000 		.space	153600
 4334      00000000 
 4334      00000000 
 4334      00000000 
 4334      00000000 
 4335              		.text
ARM GAS  /var/folders/cl/k1vt3d7567s5t107m3sv9whr0000gn/T//cclnrocj.s 			page 134


 4336              	.Letext0:
 4337              		.file 12 "/Library/DaisyToolchain/0.2.0/arm/arm-none-eabi/include/machine/_default_types.h"
 4338              		.file 13 "/Library/DaisyToolchain/0.2.0/arm/arm-none-eabi/include/sys/_stdint.h"
 4339              		.file 14 "/Library/DaisyToolchain/0.2.0/arm/arm-none-eabi/include/stdint.h"
 4340              		.file 15 "/Library/DaisyToolchain/0.2.0/arm/lib/gcc/arm-none-eabi/10.3.1/include/stddef.h"
 4341              		.file 16 "/Library/DaisyToolchain/0.2.0/arm/arm-none-eabi/include/c++/10.3.1/cmath"
 4342              		.file 17 "/Library/DaisyToolchain/0.2.0/arm/arm-none-eabi/include/c++/10.3.1/bits/std_abs.h"
 4343              		.file 18 "/Library/DaisyToolchain/0.2.0/arm/arm-none-eabi/include/c++/10.3.1/cstdlib"
 4344              		.file 19 "/Library/DaisyToolchain/0.2.0/arm/arm-none-eabi/include/c++/10.3.1/cstdint"
 4345              		.file 20 "/Library/DaisyToolchain/0.2.0/arm/arm-none-eabi/include/c++/10.3.1/type_traits"
 4346              		.file 21 "/Library/DaisyToolchain/0.2.0/arm/arm-none-eabi/include/c++/10.3.1/debug/debug.h"
 4347              		.file 22 "/Library/DaisyToolchain/0.2.0/arm/arm-none-eabi/include/c++/10.3.1/arm-none-eabi/thumb/v
 4348              		.file 23 "/Library/DaisyToolchain/0.2.0/arm/arm-none-eabi/include/c++/10.3.1/bits/algorithmfwd.h"
 4349              		.file 24 "/Library/DaisyToolchain/0.2.0/arm/arm-none-eabi/include/c++/10.3.1/bits/stl_pair.h"
 4350              		.file 25 "/Library/DaisyToolchain/0.2.0/arm/arm-none-eabi/include/c++/10.3.1/bits/exception_ptr.h"
 4351              		.file 26 "/Library/DaisyToolchain/0.2.0/arm/arm-none-eabi/include/c++/10.3.1/cstdarg"
 4352              		.file 27 "/Library/DaisyToolchain/0.2.0/arm/arm-none-eabi/include/c++/10.3.1/cstdio"
 4353              		.file 28 "/Library/DaisyToolchain/0.2.0/arm/arm-none-eabi/include/c++/10.3.1/cstring"
 4354              		.file 29 "/Library/DaisyToolchain/0.2.0/arm/arm-none-eabi/include/c++/10.3.1/cwchar"
 4355              		.file 30 "/Library/DaisyToolchain/0.2.0/arm/arm-none-eabi/include/c++/10.3.1/clocale"
 4356              		.file 31 "/Library/DaisyToolchain/0.2.0/arm/arm-none-eabi/include/c++/10.3.1/bits/basic_string.h"
 4357              		.file 32 "/Library/DaisyToolchain/0.2.0/arm/arm-none-eabi/include/c++/10.3.1/bits/stl_iterator.h"
 4358              		.file 33 "/Library/DaisyToolchain/0.2.0/arm/arm-none-eabi/include/c++/10.3.1/bits/predefined_ops.h
 4359              		.file 34 "/Library/DaisyToolchain/0.2.0/arm/arm-none-eabi/include/sys/_types.h"
 4360              		.file 35 "/Library/DaisyToolchain/0.2.0/arm/arm-none-eabi/include/sys/reent.h"
 4361              		.file 36 "/Library/DaisyToolchain/0.2.0/arm/arm-none-eabi/include/sys/lock.h"
 4362              		.file 37 "/Library/DaisyToolchain/0.2.0/arm/arm-none-eabi/include/math.h"
 4363              		.file 38 "/Library/DaisyToolchain/0.2.0/arm/arm-none-eabi/include/stdlib.h"
 4364              		.file 39 "/Library/DaisyToolchain/0.2.0/arm/arm-none-eabi/include/c++/10.3.1/math.h"
 4365              		.file 40 "/Library/DaisyToolchain/0.2.0/arm/arm-none-eabi/include/c++/10.3.1/stdlib.h"
 4366              		.file 41 "../../libDaisy//src/daisy_core.h"
 4367              		.file 42 "../../libDaisy//src/per/tim.h"
 4368              		.file 43 "../../libDaisy//src/per/sai.h"
 4369              		.file 44 "../../libDaisy//src/util/wav_format.h"
 4370              		.file 45 "../../libDaisy//src/dev/max11300.h"
 4371              		.file 46 "../../libDaisy//src/per/gpio.h"
 4372              		.file 47 "../../libDaisy//src/dev/sdram.h"
 4373              		.file 48 "/Library/DaisyToolchain/0.2.0/arm/lib/gcc/arm-none-eabi/10.3.1/include/stdarg.h"
 4374              		.file 49 "/Library/DaisyToolchain/0.2.0/arm/arm-none-eabi/include/stdio.h"
 4375              		.file 50 "../../libDaisy//src/util/oled_fonts.h"
 4376              		.file 51 "/Library/DaisyToolchain/0.2.0/arm/arm-none-eabi/include/string.h"
 4377              		.file 52 "../../DaisySP//Source/Control/adenv.h"
 4378              		.file 53 "../../DaisySP//Source/Utility/dsp.h"
 4379              		.file 54 "/Library/DaisyToolchain/0.2.0/arm/arm-none-eabi/include/wchar.h"
 4380              		.file 55 "/Library/DaisyToolchain/0.2.0/arm/arm-none-eabi/include/locale.h"
 4381              		.file 56 "lcdlib/ili9341_ui_driver.cpp"
 4382              		.file 57 "../../libDaisy//src/dev/sr_595.h"
 4383              		.file 58 "<built-in>"
ARM GAS  /var/folders/cl/k1vt3d7567s5t107m3sv9whr0000gn/T//cclnrocj.s 			page 135


DEFINED SYMBOLS
                            *ABS*:0000000000000000 LoopyLCD.cpp
/var/folders/cl/k1vt3d7567s5t107m3sv9whr0000gn/T//cclnrocj.s:19     .text._ZN5daisy9DaisySeedD2Ev:0000000000000000 $t
/var/folders/cl/k1vt3d7567s5t107m3sv9whr0000gn/T//cclnrocj.s:26     .text._ZN5daisy9DaisySeedD2Ev:0000000000000000 _ZN5daisy9DaisySeedD2Ev
/var/folders/cl/k1vt3d7567s5t107m3sv9whr0000gn/T//cclnrocj.s:26     .text._ZN5daisy9DaisySeedD2Ev:0000000000000000 _ZN5daisy9DaisySeedD1Ev
/var/folders/cl/k1vt3d7567s5t107m3sv9whr0000gn/T//cclnrocj.s:67     .text._ZN19ILI9341SpiTransport18TxCompleteCallbackEPvN5daisy9SpiHandle6ResultE:0000000000000000 $t
/var/folders/cl/k1vt3d7567s5t107m3sv9whr0000gn/T//cclnrocj.s:74     .text._ZN19ILI9341SpiTransport18TxCompleteCallbackEPvN5daisy9SpiHandle6ResultE:0000000000000000 _ZN19ILI9341SpiTransport18TxCompleteCallbackEPvN5daisy9SpiHandle6ResultE
/var/folders/cl/k1vt3d7567s5t107m3sv9whr0000gn/T//cclnrocj.s:235    .text._ZN19ILI9341SpiTransport18TxCompleteCallbackEPvN5daisy9SpiHandle6ResultE:000000000000004c $d
/var/folders/cl/k1vt3d7567s5t107m3sv9whr0000gn/T//cclnrocj.s:4333   .sram1_bss:0000000000000000 _ZN19ILI9341SpiTransport12frame_bufferE
/var/folders/cl/k1vt3d7567s5t107m3sv9whr0000gn/T//cclnrocj.s:241    .rodata._ZN8UiDriver10InitDriverEv.str1.4:0000000000000000 $d
/var/folders/cl/k1vt3d7567s5t107m3sv9whr0000gn/T//cclnrocj.s:248    .text._ZN8UiDriver10InitDriverEv:0000000000000000 $t
/var/folders/cl/k1vt3d7567s5t107m3sv9whr0000gn/T//cclnrocj.s:255    .text._ZN8UiDriver10InitDriverEv:0000000000000000 _ZN8UiDriver10InitDriverEv
/var/folders/cl/k1vt3d7567s5t107m3sv9whr0000gn/T//cclnrocj.s:1656   .text._ZN8UiDriver10InitDriverEv:0000000000000474 $d
/var/folders/cl/k1vt3d7567s5t107m3sv9whr0000gn/T//cclnrocj.s:1679   .text._ZN8UiDriver10InitDriverEv:00000000000004a4 $t
/var/folders/cl/k1vt3d7567s5t107m3sv9whr0000gn/T//cclnrocj.s:1992   .text._ZN8UiDriver10InitDriverEv:00000000000005bc $d
/var/folders/cl/k1vt3d7567s5t107m3sv9whr0000gn/T//cclnrocj.s:1997   .text._ZN8UiDriver8DrawLineEjjjjhh:0000000000000000 $t
/var/folders/cl/k1vt3d7567s5t107m3sv9whr0000gn/T//cclnrocj.s:2004   .text._ZN8UiDriver8DrawLineEjjjjhh:0000000000000000 _ZN8UiDriver8DrawLineEjjjjhh
/var/folders/cl/k1vt3d7567s5t107m3sv9whr0000gn/T//cclnrocj.s:3024   .text._ZN8UiDriver8DrawLineEjjjjhh:0000000000000328 $d
/var/folders/cl/k1vt3d7567s5t107m3sv9whr0000gn/T//cclnrocj.s:4327   .sdram_bss:0000000000000000 _ZN19ILI9341SpiTransport9color_memE
/var/folders/cl/k1vt3d7567s5t107m3sv9whr0000gn/T//cclnrocj.s:3031   .text._ZN8UiDriver6UpdateEv:0000000000000000 $t
/var/folders/cl/k1vt3d7567s5t107m3sv9whr0000gn/T//cclnrocj.s:3038   .text._ZN8UiDriver6UpdateEv:0000000000000000 _ZN8UiDriver6UpdateEv
/var/folders/cl/k1vt3d7567s5t107m3sv9whr0000gn/T//cclnrocj.s:3403   .text._ZN8UiDriver6UpdateEv:00000000000000ec $d
/var/folders/cl/k1vt3d7567s5t107m3sv9whr0000gn/T//cclnrocj.s:3409   .text.startup.main:0000000000000000 $t
/var/folders/cl/k1vt3d7567s5t107m3sv9whr0000gn/T//cclnrocj.s:3416   .text.startup.main:0000000000000000 main
/var/folders/cl/k1vt3d7567s5t107m3sv9whr0000gn/T//cclnrocj.s:4099   .text.startup.main:00000000000001cc $d
/var/folders/cl/k1vt3d7567s5t107m3sv9whr0000gn/T//cclnrocj.s:4107   .text.startup._GLOBAL__sub_I__ZN19ILI9341SpiTransport12frame_bufferE:0000000000000000 $t
/var/folders/cl/k1vt3d7567s5t107m3sv9whr0000gn/T//cclnrocj.s:4113   .text.startup._GLOBAL__sub_I__ZN19ILI9341SpiTransport12frame_bufferE:0000000000000000 _GLOBAL__sub_I__ZN19ILI9341SpiTransport12frame_bufferE
/var/folders/cl/k1vt3d7567s5t107m3sv9whr0000gn/T//cclnrocj.s:4269   .text.startup._GLOBAL__sub_I__ZN19ILI9341SpiTransport12frame_bufferE:0000000000000038 $d
/var/folders/cl/k1vt3d7567s5t107m3sv9whr0000gn/T//cclnrocj.s:4277   .init_array:0000000000000000 $d
/var/folders/cl/k1vt3d7567s5t107m3sv9whr0000gn/T//cclnrocj.s:4314   .bss.driver:0000000000000000 driver
/var/folders/cl/k1vt3d7567s5t107m3sv9whr0000gn/T//cclnrocj.s:4321   .bss.hw:0000000000000000 hw
/var/folders/cl/k1vt3d7567s5t107m3sv9whr0000gn/T//cclnrocj.s:4284   .rodata:0000000000000000 $d
/var/folders/cl/k1vt3d7567s5t107m3sv9whr0000gn/T//cclnrocj.s:4310   .bss.driver:0000000000000000 $d
/var/folders/cl/k1vt3d7567s5t107m3sv9whr0000gn/T//cclnrocj.s:4317   .bss.hw:0000000000000000 $d
/var/folders/cl/k1vt3d7567s5t107m3sv9whr0000gn/T//cclnrocj.s:4324   .sdram_bss:0000000000000000 $d
/var/folders/cl/k1vt3d7567s5t107m3sv9whr0000gn/T//cclnrocj.s:4330   .sram1_bss:0000000000000000 $d
                           .group:0000000000000000 _ZN5daisy9DaisySeedD5Ev

UNDEFINED SYMBOLS
dsy_gpio_write
_ZN5daisy9SpiHandle11DmaTransmitEPhjPFvPvEPFvS2_NS0_6ResultEES2_
_ZN5daisy9DaisySeed6GetPinEh
dsy_gpio_init
_ZN5daisy9SpiHandle4InitERKNS0_6ConfigE
_ZN5daisy6System5DelayEm
_ZN5daisy9SpiHandle16BlockingTransmitEPhjm
_ZN5daisy9DaisySeed4InitEb
_ZN5daisy6System6GetNowEv
__aeabi_atexit
__dso_handle
